;
; Definition file of icuin40.dll
; Automatic generated by gendef
; written by Kai Tietz 2008
;
LIBRARY "icuin40.dll"
EXPORTS
??0AnnualTimeZoneRule@icu_4_0@@QAE@ABV01@@Z ; has WINAPI (@4)
??0AnnualTimeZoneRule@icu_4_0@@QAE@ABVUnicodeString@1@HHABVDateTimeRule@1@HH@Z ; has WINAPI (@24)
??0AnnualTimeZoneRule@icu_4_0@@QAE@ABVUnicodeString@1@HHPAVDateTimeRule@1@HH@Z ; has WINAPI (@24)
??0BasicTimeZone@icu_4_0@@IAE@ABV01@@Z ; has WINAPI (@4)
??0BasicTimeZone@icu_4_0@@IAE@ABVUnicodeString@1@@Z ; has WINAPI (@4)
??0BasicTimeZone@icu_4_0@@IAE@XZ
??0BoyerMooreSearch@icu_4_0@@QAE@ABV01@@Z ; has WINAPI (@4)
??0BoyerMooreSearch@icu_4_0@@QAE@PAVCollData@1@ABVUnicodeString@1@PBV31@AAW4UErrorCode@@@Z ; has WINAPI (@16)
??0CECalendar@icu_4_0@@IAE@ABV01@@Z ; has WINAPI (@4)
??0CECalendar@icu_4_0@@IAE@ABVLocale@1@AAW4UErrorCode@@@Z ; has WINAPI (@8)
??0CEList@icu_4_0@@QAE@ABV01@@Z ; has WINAPI (@4)
??0CEList@icu_4_0@@QAE@PAUUCollator@@ABVUnicodeString@1@AAW4UErrorCode@@@Z ; has WINAPI (@12)
??0Calendar@icu_4_0@@IAE@AAW4UErrorCode@@@Z ; has WINAPI (@4)
??0Calendar@icu_4_0@@IAE@ABV01@@Z ; has WINAPI (@4)
??0Calendar@icu_4_0@@IAE@ABVTimeZone@1@ABVLocale@1@AAW4UErrorCode@@@Z ; has WINAPI (@12)
??0Calendar@icu_4_0@@IAE@PAVTimeZone@1@ABVLocale@1@AAW4UErrorCode@@@Z ; has WINAPI (@12)
??0CalendarAstronomer@icu_4_0@@QAE@N@Z ; has WINAPI (@8)
??0CalendarAstronomer@icu_4_0@@QAE@NN@Z ; has WINAPI (@16)
??0CalendarAstronomer@icu_4_0@@QAE@XZ
??0ChoiceFormat@icu_4_0@@AAE@ABVUnicodeString@1@AAUUParseError@@AAW4UErrorCode@@@Z ; has WINAPI (@12)
??0ChoiceFormat@icu_4_0@@QAE@ABV01@@Z ; has WINAPI (@4)
??0ChoiceFormat@icu_4_0@@QAE@ABVUnicodeString@1@AAW4UErrorCode@@@Z ; has WINAPI (@8)
??0ChoiceFormat@icu_4_0@@QAE@PBNPBCPBVUnicodeString@1@H@Z ; has WINAPI (@16)
??0ChoiceFormat@icu_4_0@@QAE@PBNPBVUnicodeString@1@H@Z ; has WINAPI (@12)
??0CollData@icu_4_0@@AAE@PAUUCollator@@PADHAAW4UErrorCode@@@Z ; has WINAPI (@16)
??0CollData@icu_4_0@@AAE@XZ
??0CollData@icu_4_0@@QAE@ABV01@@Z ; has WINAPI (@4)
??0CollationElementIterator@icu_4_0@@IAE@ABVCharacterIterator@1@PBVRuleBasedCollator@1@AAW4UErrorCode@@@Z ; has WINAPI (@12)
??0CollationElementIterator@icu_4_0@@IAE@ABVUnicodeString@1@PBVRuleBasedCollator@1@AAW4UErrorCode@@@Z ; has WINAPI (@12)
??0CollationElementIterator@icu_4_0@@QAE@ABV01@@Z ; has WINAPI (@4)
??0CollationKey@icu_4_0@@QAE@ABV01@@Z ; has WINAPI (@4)
??0CollationKey@icu_4_0@@QAE@PBEH@Z ; has WINAPI (@8)
??0CollationKey@icu_4_0@@QAE@XZ
??0Collator@icu_4_0@@IAE@ABV01@@Z ; has WINAPI (@4)
??0Collator@icu_4_0@@IAE@W4UColAttributeValue@@W4UNormalizationMode@@@Z ; has WINAPI (@8)
??0Collator@icu_4_0@@IAE@XZ
??0CollatorFactory@icu_4_0@@QAE@ABV01@@Z ; has WINAPI (@4)
??0CollatorFactory@icu_4_0@@QAE@XZ
??0CompoundTransliterator@icu_4_0@@AAE@AAVUVector@1@AAUUParseError@@AAW4UErrorCode@@@Z ; has WINAPI (@12)
??0CompoundTransliterator@icu_4_0@@AAE@AAVUVector@1@HAAUUParseError@@AAW4UErrorCode@@@Z ; has WINAPI (@16)
??0CompoundTransliterator@icu_4_0@@AAE@ABVUnicodeString@1@AAVUVector@1@PAVUnicodeFilter@1@HAAUUParseError@@AAW4UErrorCode@@@Z ; has WINAPI (@24)
??0CompoundTransliterator@icu_4_0@@QAE@ABV01@@Z ; has WINAPI (@4)
??0CompoundTransliterator@icu_4_0@@QAE@ABVUnicodeString@1@AAUUParseError@@AAW4UErrorCode@@@Z ; has WINAPI (@12)
??0CompoundTransliterator@icu_4_0@@QAE@ABVUnicodeString@1@W4UTransDirection@@PAVUnicodeFilter@1@AAUUParseError@@AAW4UErrorCode@@@Z ; has WINAPI (@20)
??0CompoundTransliterator@icu_4_0@@QAE@QBQAVTransliterator@1@HPAVUnicodeFilter@1@@Z ; has WINAPI (@12)
??0CurrencyAmount@icu_4_0@@QAE@ABV01@@Z ; has WINAPI (@4)
??0CurrencyAmount@icu_4_0@@QAE@ABVFormattable@1@PB_WAAW4UErrorCode@@@Z ; has WINAPI (@12)
??0CurrencyAmount@icu_4_0@@QAE@NPB_WAAW4UErrorCode@@@Z ; has WINAPI (@16)
??0CurrencyUnit@icu_4_0@@QAE@ABV01@@Z ; has WINAPI (@4)
??0CurrencyUnit@icu_4_0@@QAE@PB_WAAW4UErrorCode@@@Z ; has WINAPI (@8)
??0DateFormat@icu_4_0@@IAE@ABV01@@Z ; has WINAPI (@4)
??0DateFormat@icu_4_0@@IAE@XZ
??0DateFormatSymbols@icu_4_0@@QAE@AAW4UErrorCode@@@Z ; has WINAPI (@4)
??0DateFormatSymbols@icu_4_0@@QAE@ABV01@@Z ; has WINAPI (@4)
??0DateFormatSymbols@icu_4_0@@QAE@ABVLocale@1@AAW4UErrorCode@@@Z ; has WINAPI (@8)
??0DateFormatSymbols@icu_4_0@@QAE@ABVLocale@1@PBDAAW4UErrorCode@@@Z ; has WINAPI (@12)
??0DateFormatSymbols@icu_4_0@@QAE@PBDAAW4UErrorCode@@@Z ; has WINAPI (@8)
??0DateIntervalFormat@icu_4_0@@AAE@PAVDateFormat@1@PAVDateIntervalInfo@1@PBVUnicodeString@1@AAW4UErrorCode@@@Z ; has WINAPI (@16)
??0DateIntervalFormat@icu_4_0@@AAE@XZ
??0DateIntervalFormat@icu_4_0@@IAE@ABV01@@Z ; has WINAPI (@4)
??0DateIntervalInfo@icu_4_0@@QAE@AAW4UErrorCode@@@Z ; has WINAPI (@4)
??0DateIntervalInfo@icu_4_0@@QAE@ABV01@@Z ; has WINAPI (@4)
??0DateIntervalInfo@icu_4_0@@QAE@ABVLocale@1@AAW4UErrorCode@@@Z ; has WINAPI (@8)
??0DateTimePatternGenerator@icu_4_0@@AAE@AAW4UErrorCode@@@Z ; has WINAPI (@4)
??0DateTimePatternGenerator@icu_4_0@@AAE@ABV01@@Z ; has WINAPI (@4)
??0DateTimePatternGenerator@icu_4_0@@AAE@ABVLocale@1@AAW4UErrorCode@@@Z ; has WINAPI (@8)
??0DateTimeRule@icu_4_0@@QAE@ABV01@@Z ; has WINAPI (@4)
??0DateTimeRule@icu_4_0@@QAE@HHHCHW4TimeRuleType@01@@Z ; has WINAPI (@24)
??0DateTimeRule@icu_4_0@@QAE@HHHHW4TimeRuleType@01@@Z ; has WINAPI (@20)
??0DateTimeRule@icu_4_0@@QAE@HHHW4TimeRuleType@01@@Z ; has WINAPI (@16)
??0DecimalFormat@icu_4_0@@QAE@AAW4UErrorCode@@@Z ; has WINAPI (@4)
??0DecimalFormat@icu_4_0@@QAE@ABV01@@Z ; has WINAPI (@4)
??0DecimalFormat@icu_4_0@@QAE@ABVUnicodeString@1@AAW4UErrorCode@@@Z ; has WINAPI (@8)
??0DecimalFormat@icu_4_0@@QAE@ABVUnicodeString@1@ABVDecimalFormatSymbols@1@AAW4UErrorCode@@@Z ; has WINAPI (@12)
??0DecimalFormat@icu_4_0@@QAE@ABVUnicodeString@1@PAVDecimalFormatSymbols@1@AAUUParseError@@AAW4UErrorCode@@@Z ; has WINAPI (@16)
??0DecimalFormat@icu_4_0@@QAE@ABVUnicodeString@1@PAVDecimalFormatSymbols@1@AAW4UErrorCode@@@Z ; has WINAPI (@12)
??0DecimalFormatSymbols@icu_4_0@@QAE@AAW4UErrorCode@@@Z ; has WINAPI (@4)
??0DecimalFormatSymbols@icu_4_0@@QAE@ABV01@@Z ; has WINAPI (@4)
??0DecimalFormatSymbols@icu_4_0@@QAE@ABVLocale@1@AAW4UErrorCode@@@Z ; has WINAPI (@8)
??0Ecliptic@CalendarAstronomer@icu_4_0@@QAE@NN@Z ; has WINAPI (@16)
??0Equatorial@CalendarAstronomer@icu_4_0@@QAE@NN@Z ; has WINAPI (@16)
??0FieldPosition@icu_4_0@@QAE@ABV01@@Z ; has WINAPI (@4)
??0FieldPosition@icu_4_0@@QAE@H@Z ; has WINAPI (@4)
??0FieldPosition@icu_4_0@@QAE@XZ
??0Format@icu_4_0@@IAE@ABV01@@Z ; has WINAPI (@4)
??0Format@icu_4_0@@IAE@XZ
??0Formattable@icu_4_0@@QAE@ABV01@@Z ; has WINAPI (@4)
??0Formattable@icu_4_0@@QAE@ABVUnicodeString@1@@Z ; has WINAPI (@4)
??0Formattable@icu_4_0@@QAE@H@Z ; has WINAPI (@4)
??0Formattable@icu_4_0@@QAE@N@Z ; has WINAPI (@8)
??0Formattable@icu_4_0@@QAE@NW4ISDATE@01@@Z ; has WINAPI (@12)
??0Formattable@icu_4_0@@QAE@PAVUObject@1@@Z ; has WINAPI (@4)
??0Formattable@icu_4_0@@QAE@PAVUnicodeString@1@@Z ; has WINAPI (@4)
??0Formattable@icu_4_0@@QAE@PBD@Z ; has WINAPI (@4)
??0Formattable@icu_4_0@@QAE@PBV01@H@Z ; has WINAPI (@8)
??0Formattable@icu_4_0@@QAE@XZ
??0Formattable@icu_4_0@@QAE@_J@Z ; has WINAPI (@8)
??0GregorianCalendar@icu_4_0@@QAE@AAW4UErrorCode@@@Z ; has WINAPI (@4)
??0GregorianCalendar@icu_4_0@@QAE@ABV01@@Z ; has WINAPI (@4)
??0GregorianCalendar@icu_4_0@@QAE@ABVLocale@1@AAW4UErrorCode@@@Z ; has WINAPI (@8)
??0GregorianCalendar@icu_4_0@@QAE@ABVTimeZone@1@AAW4UErrorCode@@@Z ; has WINAPI (@8)
??0GregorianCalendar@icu_4_0@@QAE@ABVTimeZone@1@ABVLocale@1@AAW4UErrorCode@@@Z ; has WINAPI (@12)
??0GregorianCalendar@icu_4_0@@QAE@HHHAAW4UErrorCode@@@Z ; has WINAPI (@16)
??0GregorianCalendar@icu_4_0@@QAE@HHHHHAAW4UErrorCode@@@Z ; has WINAPI (@24)
??0GregorianCalendar@icu_4_0@@QAE@HHHHHHAAW4UErrorCode@@@Z ; has WINAPI (@28)
??0GregorianCalendar@icu_4_0@@QAE@PAVTimeZone@1@AAW4UErrorCode@@@Z ; has WINAPI (@8)
??0GregorianCalendar@icu_4_0@@QAE@PAVTimeZone@1@ABVLocale@1@AAW4UErrorCode@@@Z ; has WINAPI (@12)
??0Horizon@CalendarAstronomer@icu_4_0@@QAE@NN@Z ; has WINAPI (@16)
??0InitialTimeZoneRule@icu_4_0@@QAE@ABV01@@Z ; has WINAPI (@4)
??0InitialTimeZoneRule@icu_4_0@@QAE@ABVUnicodeString@1@HH@Z ; has WINAPI (@12)
??0Measure@icu_4_0@@IAE@XZ
??0Measure@icu_4_0@@QAE@ABV01@@Z ; has WINAPI (@4)
??0Measure@icu_4_0@@QAE@ABVFormattable@1@PAVMeasureUnit@1@AAW4UErrorCode@@@Z ; has WINAPI (@12)
??0MeasureFormat@icu_4_0@@IAE@XZ
??0MeasureFormat@icu_4_0@@QAE@ABV01@@Z ; has WINAPI (@4)
??0MeasureUnit@icu_4_0@@IAE@XZ
??0MeasureUnit@icu_4_0@@QAE@ABV01@@Z ; has WINAPI (@4)
??0MessageFormat@icu_4_0@@QAE@ABV01@@Z ; has WINAPI (@4)
??0MessageFormat@icu_4_0@@QAE@ABVUnicodeString@1@AAW4UErrorCode@@@Z ; has WINAPI (@8)
??0MessageFormat@icu_4_0@@QAE@ABVUnicodeString@1@ABVLocale@1@AAUUParseError@@AAW4UErrorCode@@@Z ; has WINAPI (@16)
??0MessageFormat@icu_4_0@@QAE@ABVUnicodeString@1@ABVLocale@1@AAW4UErrorCode@@@Z ; has WINAPI (@12)
??0MoonAge@CalendarAstronomer@icu_4_0@@QAE@N@Z ; has WINAPI (@8)
??0NumberFormat@icu_4_0@@IAE@ABV01@@Z ; has WINAPI (@4)
??0NumberFormat@icu_4_0@@IAE@XZ
??0NumberFormatFactory@icu_4_0@@QAE@ABV01@@Z ; has WINAPI (@4)
??0NumberFormatFactory@icu_4_0@@QAE@XZ
??0PluralFormat@icu_4_0@@QAE@AAW4UErrorCode@@@Z ; has WINAPI (@4)
??0PluralFormat@icu_4_0@@QAE@ABV01@@Z ; has WINAPI (@4)
??0PluralFormat@icu_4_0@@QAE@ABVLocale@1@AAW4UErrorCode@@@Z ; has WINAPI (@8)
??0PluralFormat@icu_4_0@@QAE@ABVLocale@1@ABVPluralRules@1@AAW4UErrorCode@@@Z ; has WINAPI (@12)
??0PluralFormat@icu_4_0@@QAE@ABVLocale@1@ABVPluralRules@1@ABVUnicodeString@1@AAW4UErrorCode@@@Z ; has WINAPI (@16)
??0PluralFormat@icu_4_0@@QAE@ABVLocale@1@ABVUnicodeString@1@AAW4UErrorCode@@@Z ; has WINAPI (@12)
??0PluralFormat@icu_4_0@@QAE@ABVPluralRules@1@AAW4UErrorCode@@@Z ; has WINAPI (@8)
??0PluralFormat@icu_4_0@@QAE@ABVPluralRules@1@ABVUnicodeString@1@AAW4UErrorCode@@@Z ; has WINAPI (@12)
??0PluralFormat@icu_4_0@@QAE@ABVUnicodeString@1@AAW4UErrorCode@@@Z ; has WINAPI (@8)
??0PluralRules@icu_4_0@@QAE@AAW4UErrorCode@@@Z ; has WINAPI (@4)
??0PluralRules@icu_4_0@@QAE@ABV01@@Z ; has WINAPI (@4)
??0RegexMatcher@icu_4_0@@AAE@PBVRegexPattern@1@@Z ; has WINAPI (@4)
??0RegexMatcher@icu_4_0@@QAE@ABVUnicodeString@1@0IAAW4UErrorCode@@@Z ; has WINAPI (@16)
??0RegexMatcher@icu_4_0@@QAE@ABVUnicodeString@1@IAAW4UErrorCode@@@Z ; has WINAPI (@12)
??0RegexPattern@icu_4_0@@QAE@ABV01@@Z ; has WINAPI (@4)
??0RegexPattern@icu_4_0@@QAE@XZ
??0RuleBasedCollator@icu_4_0@@AAE@ABVLocale@1@AAW4UErrorCode@@@Z ; has WINAPI (@8)
??0RuleBasedCollator@icu_4_0@@AAE@XZ
??0RuleBasedCollator@icu_4_0@@QAE@ABV01@@Z ; has WINAPI (@4)
??0RuleBasedCollator@icu_4_0@@QAE@ABVUnicodeString@1@AAW4UErrorCode@@@Z ; has WINAPI (@8)
??0RuleBasedCollator@icu_4_0@@QAE@ABVUnicodeString@1@W4ECollationStrength@Collator@1@AAW4UErrorCode@@@Z ; has WINAPI (@12)
??0RuleBasedCollator@icu_4_0@@QAE@ABVUnicodeString@1@W4ECollationStrength@Collator@1@W4UColAttributeValue@@AAW4UErrorCode@@@Z ; has WINAPI (@16)
??0RuleBasedCollator@icu_4_0@@QAE@ABVUnicodeString@1@W4UColAttributeValue@@AAW4UErrorCode@@@Z ; has WINAPI (@12)
??0RuleBasedCollator@icu_4_0@@QAE@PBEHPBV01@AAW4UErrorCode@@@Z ; has WINAPI (@16)
??0RuleBasedNumberFormat@icu_4_0@@AAE@ABVUnicodeString@1@PAVLocalizationInfo@1@ABVLocale@1@AAUUParseError@@AAW4UErrorCode@@@Z ; has WINAPI (@20)
??0RuleBasedNumberFormat@icu_4_0@@QAE@ABV01@@Z ; has WINAPI (@4)
??0RuleBasedNumberFormat@icu_4_0@@QAE@ABVUnicodeString@1@0AAUUParseError@@AAW4UErrorCode@@@Z ; has WINAPI (@16)
??0RuleBasedNumberFormat@icu_4_0@@QAE@ABVUnicodeString@1@0ABVLocale@1@AAUUParseError@@AAW4UErrorCode@@@Z ; has WINAPI (@20)
??0RuleBasedNumberFormat@icu_4_0@@QAE@ABVUnicodeString@1@AAUUParseError@@AAW4UErrorCode@@@Z ; has WINAPI (@12)
??0RuleBasedNumberFormat@icu_4_0@@QAE@ABVUnicodeString@1@ABVLocale@1@AAUUParseError@@AAW4UErrorCode@@@Z ; has WINAPI (@16)
??0RuleBasedNumberFormat@icu_4_0@@QAE@W4URBNFRuleSetTag@1@ABVLocale@1@AAW4UErrorCode@@@Z ; has WINAPI (@12)
??0RuleBasedTimeZone@icu_4_0@@QAE@ABV01@@Z ; has WINAPI (@4)
??0RuleBasedTimeZone@icu_4_0@@QAE@ABVUnicodeString@1@PAVInitialTimeZoneRule@1@@Z ; has WINAPI (@8)
??0SearchIterator@icu_4_0@@IAE@AAVCharacterIterator@1@PAVBreakIterator@1@@Z ; has WINAPI (@8)
??0SearchIterator@icu_4_0@@IAE@ABVUnicodeString@1@PAVBreakIterator@1@@Z ; has WINAPI (@8)
??0SearchIterator@icu_4_0@@IAE@XZ
??0SearchIterator@icu_4_0@@QAE@ABV01@@Z ; has WINAPI (@4)
??0SimpleDateFormat@icu_4_0@@AAE@ABVLocale@1@AAW4UErrorCode@@@Z ; has WINAPI (@8)
??0SimpleDateFormat@icu_4_0@@AAE@W4EStyle@DateFormat@1@0ABVLocale@1@AAW4UErrorCode@@@Z ; has WINAPI (@16)
??0SimpleDateFormat@icu_4_0@@QAE@AAW4UErrorCode@@@Z ; has WINAPI (@4)
??0SimpleDateFormat@icu_4_0@@QAE@ABV01@@Z ; has WINAPI (@4)
??0SimpleDateFormat@icu_4_0@@QAE@ABVUnicodeString@1@AAW4UErrorCode@@@Z ; has WINAPI (@8)
??0SimpleDateFormat@icu_4_0@@QAE@ABVUnicodeString@1@ABVDateFormatSymbols@1@AAW4UErrorCode@@@Z ; has WINAPI (@12)
??0SimpleDateFormat@icu_4_0@@QAE@ABVUnicodeString@1@ABVLocale@1@AAW4UErrorCode@@@Z ; has WINAPI (@12)
??0SimpleDateFormat@icu_4_0@@QAE@ABVUnicodeString@1@PAVDateFormatSymbols@1@AAW4UErrorCode@@@Z ; has WINAPI (@12)
??0SimpleNumberFormatFactory@icu_4_0@@QAE@ABV01@@Z ; has WINAPI (@4)
??0SimpleNumberFormatFactory@icu_4_0@@QAE@ABVLocale@1@C@Z ; has WINAPI (@8)
??0SimpleTimeZone@icu_4_0@@QAE@ABV01@@Z ; has WINAPI (@4)
??0SimpleTimeZone@icu_4_0@@QAE@HABVUnicodeString@1@@Z ; has WINAPI (@8)
??0SimpleTimeZone@icu_4_0@@QAE@HABVUnicodeString@1@CCCHCCCHAAW4UErrorCode@@@Z ; has WINAPI (@44)
??0SimpleTimeZone@icu_4_0@@QAE@HABVUnicodeString@1@CCCHCCCHHAAW4UErrorCode@@@Z ; has WINAPI (@48)
??0SimpleTimeZone@icu_4_0@@QAE@HABVUnicodeString@1@CCCHW4TimeMode@01@CCCH1HAAW4UErrorCode@@@Z ; has WINAPI (@56)
??0StringList@icu_4_0@@QAE@AAW4UErrorCode@@@Z ; has WINAPI (@4)
??0StringList@icu_4_0@@QAE@ABV01@@Z ; has WINAPI (@4)
??0StringSearch@icu_4_0@@QAE@ABV01@@Z ; has WINAPI (@4)
??0StringSearch@icu_4_0@@QAE@ABVUnicodeString@1@0ABVLocale@1@PAVBreakIterator@1@AAW4UErrorCode@@@Z ; has WINAPI (@20)
??0StringSearch@icu_4_0@@QAE@ABVUnicodeString@1@0PAVRuleBasedCollator@1@PAVBreakIterator@1@AAW4UErrorCode@@@Z ; has WINAPI (@20)
??0StringSearch@icu_4_0@@QAE@ABVUnicodeString@1@AAVCharacterIterator@1@ABVLocale@1@PAVBreakIterator@1@AAW4UErrorCode@@@Z ; has WINAPI (@20)
??0StringSearch@icu_4_0@@QAE@ABVUnicodeString@1@AAVCharacterIterator@1@PAVRuleBasedCollator@1@PAVBreakIterator@1@AAW4UErrorCode@@@Z ; has WINAPI (@20)
??0TimeArrayTimeZoneRule@icu_4_0@@QAE@ABV01@@Z ; has WINAPI (@4)
??0TimeArrayTimeZoneRule@icu_4_0@@QAE@ABVUnicodeString@1@HHPBNHW4TimeRuleType@DateTimeRule@1@@Z ; has WINAPI (@24)
??0TimeZone@icu_4_0@@IAE@ABV01@@Z ; has WINAPI (@4)
??0TimeZone@icu_4_0@@IAE@ABVUnicodeString@1@@Z ; has WINAPI (@4)
??0TimeZone@icu_4_0@@IAE@XZ
??0TimeZoneRule@icu_4_0@@IAE@ABV01@@Z ; has WINAPI (@4)
??0TimeZoneRule@icu_4_0@@IAE@ABVUnicodeString@1@HH@Z ; has WINAPI (@12)
??0TimeZoneTransition@icu_4_0@@QAE@ABV01@@Z ; has WINAPI (@4)
??0TimeZoneTransition@icu_4_0@@QAE@NABVTimeZoneRule@1@0@Z ; has WINAPI (@16)
??0TimeZoneTransition@icu_4_0@@QAE@XZ
??0Transliterator@icu_4_0@@IAE@ABV01@@Z ; has WINAPI (@4)
??0Transliterator@icu_4_0@@IAE@ABVUnicodeString@1@PAVUnicodeFilter@1@@Z ; has WINAPI (@8)
??0UnicodeReplacer@icu_4_0@@QAE@ABV01@@Z ; has WINAPI (@4)
??0UnicodeReplacer@icu_4_0@@QAE@XZ
??0VTimeZone@icu_4_0@@AAE@XZ
??0VTimeZone@icu_4_0@@QAE@ABV01@@Z ; has WINAPI (@4)
??1AnnualTimeZoneRule@icu_4_0@@UAE@XZ
??1BasicTimeZone@icu_4_0@@UAE@XZ
??1BoyerMooreSearch@icu_4_0@@UAE@XZ
??1CECalendar@icu_4_0@@MAE@XZ
??1CEList@icu_4_0@@UAE@XZ ; Check!!! forwards to ??1UObject@icu_4_0@@UAE@XZ in icuuc40.dll (ordinal 176)
??1Calendar@icu_4_0@@UAE@XZ
??1CalendarAstronomer@icu_4_0@@QAE@XZ
??1ChoiceFormat@icu_4_0@@UAE@XZ
??1CollData@icu_4_0@@EAE@XZ
??1CollationElementIterator@icu_4_0@@UAE@XZ ; Check!!! forwards to ??1UObject@icu_4_0@@UAE@XZ in icuuc40.dll (ordinal 176)
??1CollationKey@icu_4_0@@UAE@XZ ; Check!!! forwards to ??1UObject@icu_4_0@@UAE@XZ in icuuc40.dll (ordinal 176)
??1Collator@icu_4_0@@UAE@XZ ; Check!!! forwards to ??1UObject@icu_4_0@@UAE@XZ in icuuc40.dll (ordinal 176)
??1CollatorFactory@icu_4_0@@UAE@XZ ; Check!!! forwards to ??1UObject@icu_4_0@@UAE@XZ in icuuc40.dll (ordinal 176)
??1CompoundTransliterator@icu_4_0@@UAE@XZ
??1CurrencyAmount@icu_4_0@@UAE@XZ
??1CurrencyUnit@icu_4_0@@UAE@XZ ; Check!!! forwards to ??1UObject@icu_4_0@@UAE@XZ in icuuc40.dll (ordinal 176)
??1DateFormat@icu_4_0@@UAE@XZ
??1DateFormatSymbols@icu_4_0@@UAE@XZ
??1DateIntervalFormat@icu_4_0@@UAE@XZ
??1DateIntervalInfo@icu_4_0@@UAE@XZ
??1DateTimePatternGenerator@icu_4_0@@UAE@XZ
??1DateTimeRule@icu_4_0@@UAE@XZ ; Check!!! forwards to ??1UObject@icu_4_0@@UAE@XZ in icuuc40.dll (ordinal 176)
??1DecimalFormat@icu_4_0@@UAE@XZ
??1DecimalFormatSymbols@icu_4_0@@UAE@XZ
??1FieldPosition@icu_4_0@@UAE@XZ ; Check!!! forwards to ??1UObject@icu_4_0@@UAE@XZ in icuuc40.dll (ordinal 176)
??1Format@icu_4_0@@UAE@XZ ; Check!!! forwards to ??1UObject@icu_4_0@@UAE@XZ in icuuc40.dll (ordinal 176)
??1Formattable@icu_4_0@@UAE@XZ
??1GregorianCalendar@icu_4_0@@UAE@XZ
??1InitialTimeZoneRule@icu_4_0@@UAE@XZ
??1Measure@icu_4_0@@UAE@XZ
??1MeasureFormat@icu_4_0@@UAE@XZ ; Check!!! forwards to ??1UObject@icu_4_0@@UAE@XZ in icuuc40.dll (ordinal 176)
??1MeasureUnit@icu_4_0@@UAE@XZ ; Check!!! forwards to ??1UObject@icu_4_0@@UAE@XZ in icuuc40.dll (ordinal 176)
??1MessageFormat@icu_4_0@@UAE@XZ
??1NumberFormat@icu_4_0@@UAE@XZ ; Check!!! forwards to ??1UObject@icu_4_0@@UAE@XZ in icuuc40.dll (ordinal 176)
??1NumberFormatFactory@icu_4_0@@UAE@XZ ; Check!!! forwards to ??1UObject@icu_4_0@@UAE@XZ in icuuc40.dll (ordinal 176)
??1PluralFormat@icu_4_0@@UAE@XZ
??1PluralRules@icu_4_0@@UAE@XZ
??1RegexMatcher@icu_4_0@@UAE@XZ
??1RegexPattern@icu_4_0@@UAE@XZ
??1RuleBasedCollator@icu_4_0@@UAE@XZ
??1RuleBasedNumberFormat@icu_4_0@@UAE@XZ
??1RuleBasedTimeZone@icu_4_0@@UAE@XZ
??1SearchIterator@icu_4_0@@UAE@XZ
??1SimpleDateFormat@icu_4_0@@UAE@XZ
??1SimpleNumberFormatFactory@icu_4_0@@UAE@XZ
??1SimpleTimeZone@icu_4_0@@UAE@XZ
??1StringList@icu_4_0@@UAE@XZ
??1StringSearch@icu_4_0@@UAE@XZ
??1TimeArrayTimeZoneRule@icu_4_0@@UAE@XZ
??1TimeZone@icu_4_0@@UAE@XZ
??1TimeZoneRule@icu_4_0@@UAE@XZ
??1TimeZoneTransition@icu_4_0@@UAE@XZ
??1Transliterator@icu_4_0@@UAE@XZ
??1UnicodeReplacer@icu_4_0@@UAE@XZ
??1VTimeZone@icu_4_0@@UAE@XZ
??4AnnualTimeZoneRule@icu_4_0@@QAEAAV01@ABV01@@Z ; has WINAPI (@4)
??4BasicTimeZone@icu_4_0@@QAEAAV01@ABV01@@Z ; has WINAPI (@4)
??4BoyerMooreSearch@icu_4_0@@QAEAAV01@ABV01@@Z ; has WINAPI (@4)
??4CECalendar@icu_4_0@@IAEAAV01@ABV01@@Z ; has WINAPI (@4)
??4CEList@icu_4_0@@QAEAAV01@ABV01@@Z ; has WINAPI (@4)
??4Calendar@icu_4_0@@IAEAAV01@ABV01@@Z ; has WINAPI (@4)
??4CalendarAstronomer@icu_4_0@@QAEAAV01@ABV01@@Z ; has WINAPI (@4)
??4ChoiceFormat@icu_4_0@@QAEABV01@ABV01@@Z ; has WINAPI (@4)
??4CollData@icu_4_0@@QAEAAV01@ABV01@@Z ; has WINAPI (@4)
??4CollationElementIterator@icu_4_0@@IAEABV01@ABV01@@Z ; has WINAPI (@4)
??4CollationKey@icu_4_0@@QAEABV01@ABV01@@Z ; has WINAPI (@4)
??4CollatorFactory@icu_4_0@@QAEAAV01@ABV01@@Z ; has WINAPI (@4)
??4CompoundTransliterator@icu_4_0@@AAEAAV01@ABV01@@Z ; has WINAPI (@4)
??4CurrencyAmount@icu_4_0@@QAEAAV01@ABV01@@Z ; has WINAPI (@4)
??4CurrencyUnit@icu_4_0@@QAEAAV01@ABV01@@Z ; has WINAPI (@4)
??4DateFormat@icu_4_0@@IAEAAV01@ABV01@@Z ; has WINAPI (@4)
??4DateFormatSymbols@icu_4_0@@QAEAAV01@ABV01@@Z ; has WINAPI (@4)
??4DateIntervalFormat@icu_4_0@@IAEAAV01@ABV01@@Z ; has WINAPI (@4)
??4DateIntervalInfo@icu_4_0@@QAEAAV01@ABV01@@Z ; has WINAPI (@4)
??4DateTimePatternGenerator@icu_4_0@@AAEAAV01@ABV01@@Z ; has WINAPI (@4)
??4DateTimeRule@icu_4_0@@QAEAAV01@ABV01@@Z ; has WINAPI (@4)
??4DecimalFormat@icu_4_0@@QAEAAV01@ABV01@@Z ; has WINAPI (@4)
??4DecimalFormatSymbols@icu_4_0@@QAEAAV01@ABV01@@Z ; has WINAPI (@4)
??4Ecliptic@CalendarAstronomer@icu_4_0@@QAEAAV012@ABV012@@Z ; has WINAPI (@4)
??4Equatorial@CalendarAstronomer@icu_4_0@@QAEAAV012@ABV012@@Z ; has WINAPI (@4)
??4FieldPosition@icu_4_0@@QAEAAV01@ABV01@@Z ; has WINAPI (@4)
??4Format@icu_4_0@@IAEAAV01@ABV01@@Z ; has WINAPI (@4)
??4Formattable@icu_4_0@@QAEAAV01@ABV01@@Z ; has WINAPI (@4)
??4GregorianCalendar@icu_4_0@@QAEAAV01@ABV01@@Z ; has WINAPI (@4)
??4Horizon@CalendarAstronomer@icu_4_0@@QAEAAV012@ABV012@@Z ; has WINAPI (@4)
??4InitialTimeZoneRule@icu_4_0@@QAEAAV01@ABV01@@Z ; has WINAPI (@4)
??4Measure@icu_4_0@@QAEAAV01@ABV01@@Z ; has WINAPI (@4)
??4MeasureFormat@icu_4_0@@QAEAAV01@ABV01@@Z ; has WINAPI (@4)
??4MeasureUnit@icu_4_0@@QAEAAV01@ABV01@@Z ; has WINAPI (@4)
??4MessageFormat@icu_4_0@@QAEABV01@ABV01@@Z ; has WINAPI (@4)
??4MoonAge@CalendarAstronomer@icu_4_0@@QAEAAV012@ABV012@@Z ; has WINAPI (@4)
??4NumberFormat@icu_4_0@@IAEAAV01@ABV01@@Z ; has WINAPI (@4)
??4NumberFormatFactory@icu_4_0@@QAEAAV01@ABV01@@Z ; has WINAPI (@4)
??4PluralFormat@icu_4_0@@QAEAAV01@ABV01@@Z ; has WINAPI (@4)
??4PluralRules@icu_4_0@@QAEAAV01@ABV01@@Z ; has WINAPI (@4)
??4RegexPattern@icu_4_0@@QAEAAV01@ABV01@@Z ; has WINAPI (@4)
??4RuleBasedCollator@icu_4_0@@QAEAAV01@ABV01@@Z ; has WINAPI (@4)
??4RuleBasedNumberFormat@icu_4_0@@QAEAAV01@ABV01@@Z ; has WINAPI (@4)
??4RuleBasedTimeZone@icu_4_0@@QAEAAV01@ABV01@@Z ; has WINAPI (@4)
??4SearchIterator@icu_4_0@@IAEAAV01@ABV01@@Z ; has WINAPI (@4)
??4SimpleDateFormat@icu_4_0@@QAEAAV01@ABV01@@Z ; has WINAPI (@4)
??4SimpleTimeZone@icu_4_0@@QAEAAV01@ABV01@@Z ; has WINAPI (@4)
??4StringList@icu_4_0@@QAEAAV01@ABV01@@Z ; has WINAPI (@4)
??4StringSearch@icu_4_0@@QAEAAV01@ABV01@@Z ; has WINAPI (@4)
??4TimeArrayTimeZoneRule@icu_4_0@@QAEAAV01@ABV01@@Z ; has WINAPI (@4)
??4TimeZone@icu_4_0@@IAEAAV01@ABV01@@Z ; has WINAPI (@4)
??4TimeZoneRule@icu_4_0@@IAEAAV01@ABV01@@Z ; has WINAPI (@4)
??4TimeZoneTransition@icu_4_0@@QAEAAV01@ABV01@@Z ; has WINAPI (@4)
??4Transliterator@icu_4_0@@IAEAAV01@ABV01@@Z ; has WINAPI (@4)
??4UnicodeReplacer@icu_4_0@@QAEAAV01@ABV01@@Z ; has WINAPI (@4)
??4VTimeZone@icu_4_0@@QAEAAV01@ABV01@@Z ; has WINAPI (@4)
??4ZoneMeta@icu_4_0@@QAEAAV01@ABV01@@Z ; has WINAPI (@4)
??8AnnualTimeZoneRule@icu_4_0@@UBECABVTimeZoneRule@1@@Z ; has WINAPI (@4)
??8Calendar@icu_4_0@@UBECABV01@@Z ; has WINAPI (@4)
??8ChoiceFormat@icu_4_0@@UBECABVFormat@1@@Z ; has WINAPI (@4)
??8CollationElementIterator@icu_4_0@@QBECABV01@@Z ; has WINAPI (@4)
??8CollationKey@icu_4_0@@QBECABV01@@Z ; has WINAPI (@4)
??8Collator@icu_4_0@@UBECABV01@@Z ; has WINAPI (@4)
??8CurrencyUnit@icu_4_0@@UBECABVUObject@1@@Z ; has WINAPI (@4)
??8DateFormat@icu_4_0@@UBECABVFormat@1@@Z ; has WINAPI (@4)
??8DateFormatSymbols@icu_4_0@@QBECABV01@@Z ; has WINAPI (@4)
??8DateIntervalFormat@icu_4_0@@UBECABVFormat@1@@Z ; has WINAPI (@4)
??8DateIntervalInfo@icu_4_0@@UBECABV01@@Z ; has WINAPI (@4)
??8DateTimePatternGenerator@icu_4_0@@QBECABV01@@Z ; has WINAPI (@4)
??8DateTimeRule@icu_4_0@@QBECABV01@@Z ; has WINAPI (@4)
??8DecimalFormat@icu_4_0@@UBECABVFormat@1@@Z ; has WINAPI (@4)
??8DecimalFormatSymbols@icu_4_0@@QBECABV01@@Z ; has WINAPI (@4)
??8FieldPosition@icu_4_0@@QBECABV01@@Z ; has WINAPI (@4)
??8Format@icu_4_0@@UBECABV01@@Z ; has WINAPI (@4)
??8Formattable@icu_4_0@@QBECABV01@@Z ; has WINAPI (@4)
??8InitialTimeZoneRule@icu_4_0@@UBECABVTimeZoneRule@1@@Z ; has WINAPI (@4)
??8Measure@icu_4_0@@QBECABVUObject@1@@Z ; has WINAPI (@4)
??8MessageFormat@icu_4_0@@UBECABVFormat@1@@Z ; has WINAPI (@4)
??8NumberFormat@icu_4_0@@UBECABVFormat@1@@Z ; has WINAPI (@4)
??8PluralFormat@icu_4_0@@UBECABVFormat@1@@Z ; has WINAPI (@4)
??8PluralRules@icu_4_0@@UBECABV01@@Z ; has WINAPI (@4)
??8RegexPattern@icu_4_0@@QBECABV01@@Z ; has WINAPI (@4)
??8RuleBasedCollator@icu_4_0@@UBECABVCollator@1@@Z ; has WINAPI (@4)
??8RuleBasedNumberFormat@icu_4_0@@UBECABVFormat@1@@Z ; has WINAPI (@4)
??8RuleBasedTimeZone@icu_4_0@@UBECABVTimeZone@1@@Z ; has WINAPI (@4)
??8SearchIterator@icu_4_0@@UBECABV01@@Z ; has WINAPI (@4)
??8SimpleDateFormat@icu_4_0@@UBECABVFormat@1@@Z ; has WINAPI (@4)
??8SimpleTimeZone@icu_4_0@@UBECABVTimeZone@1@@Z ; has WINAPI (@4)
??8StringSearch@icu_4_0@@UBECABVSearchIterator@1@@Z ; has WINAPI (@4)
??8TimeArrayTimeZoneRule@icu_4_0@@UBECABVTimeZoneRule@1@@Z ; has WINAPI (@4)
??8TimeZone@icu_4_0@@UBECABV01@@Z ; has WINAPI (@4)
??8TimeZoneRule@icu_4_0@@UBECABV01@@Z ; has WINAPI (@4)
??8TimeZoneTransition@icu_4_0@@QBECABV01@@Z ; has WINAPI (@4)
??8VTimeZone@icu_4_0@@UBECABVTimeZone@1@@Z ; has WINAPI (@4)
??9AnnualTimeZoneRule@icu_4_0@@UBECABVTimeZoneRule@1@@Z ; has WINAPI (@4)
??9Calendar@icu_4_0@@QBECABV01@@Z ; has WINAPI (@4)
??9CollationElementIterator@icu_4_0@@QBECABV01@@Z ; has WINAPI (@4)
??9CollationKey@icu_4_0@@QBECABV01@@Z ; has WINAPI (@4)
??9Collator@icu_4_0@@UBECABV01@@Z ; has WINAPI (@4)
??9DateFormatSymbols@icu_4_0@@QBECABV01@@Z ; has WINAPI (@4)
??9DateIntervalFormat@icu_4_0@@QBECABVFormat@1@@Z ; has WINAPI (@4)
??9DateIntervalInfo@icu_4_0@@QBECABV01@@Z ; has WINAPI (@4)
??9DateTimePatternGenerator@icu_4_0@@QBECABV01@@Z ; has WINAPI (@4)
??9DateTimeRule@icu_4_0@@QBECABV01@@Z ; has WINAPI (@4)
??9DecimalFormatSymbols@icu_4_0@@QBECABV01@@Z ; has WINAPI (@4)
??9FieldPosition@icu_4_0@@QBECABV01@@Z ; has WINAPI (@4)
??9Format@icu_4_0@@QBECABV01@@Z ; has WINAPI (@4)
??9Formattable@icu_4_0@@QBECABV01@@Z ; has WINAPI (@4)
??9InitialTimeZoneRule@icu_4_0@@UBECABVTimeZoneRule@1@@Z ; has WINAPI (@4)
??9PluralFormat@icu_4_0@@UBECABVFormat@1@@Z ; has WINAPI (@4)
??9PluralRules@icu_4_0@@QBECABV01@@Z ; has WINAPI (@4)
??9RegexPattern@icu_4_0@@QBECABV01@@Z ; has WINAPI (@4)
??9RuleBasedCollator@icu_4_0@@UBECABVCollator@1@@Z ; has WINAPI (@4)
??9RuleBasedTimeZone@icu_4_0@@UBECABVTimeZone@1@@Z ; has WINAPI (@4)
??9SearchIterator@icu_4_0@@QBECABV01@@Z ; has WINAPI (@4)
??9TimeArrayTimeZoneRule@icu_4_0@@UBECABVTimeZoneRule@1@@Z ; has WINAPI (@4)
??9TimeZone@icu_4_0@@QBECABV01@@Z ; has WINAPI (@4)
??9TimeZoneRule@icu_4_0@@UBECABV01@@Z ; has WINAPI (@4)
??9TimeZoneTransition@icu_4_0@@QBECABV01@@Z ; has WINAPI (@4)
??9VTimeZone@icu_4_0@@UBECABVTimeZone@1@@Z ; has WINAPI (@4)
??ACEList@icu_4_0@@QBEAAIH@Z ; has WINAPI (@4)
??AFormattable@icu_4_0@@QAEAAV01@H@Z ; has WINAPI (@4)
??_7AnnualTimeZoneRule@icu_4_0@@6B@ DATA
??_7BasicTimeZone@icu_4_0@@6B@ DATA
??_7BoyerMooreSearch@icu_4_0@@6B@ DATA
??_7CECalendar@icu_4_0@@6B@ DATA
??_7CEList@icu_4_0@@6B@ DATA
??_7Calendar@icu_4_0@@6B@ DATA
??_7ChoiceFormat@icu_4_0@@6B@ DATA
??_7CollData@icu_4_0@@6B@ DATA
??_7CollationElementIterator@icu_4_0@@6B@ DATA
??_7CollationKey@icu_4_0@@6B@ DATA
??_7Collator@icu_4_0@@6B@ DATA
??_7CollatorFactory@icu_4_0@@6B@ DATA
??_7CompoundTransliterator@icu_4_0@@6B@ DATA
??_7CurrencyAmount@icu_4_0@@6B@ DATA
??_7CurrencyUnit@icu_4_0@@6B@ DATA
??_7DateFormat@icu_4_0@@6B@ DATA
??_7DateFormatSymbols@icu_4_0@@6B@ DATA
??_7DateIntervalFormat@icu_4_0@@6B@ DATA
??_7DateIntervalInfo@icu_4_0@@6B@ DATA
??_7DateTimePatternGenerator@icu_4_0@@6B@ DATA
??_7DateTimeRule@icu_4_0@@6B@ DATA
??_7DecimalFormat@icu_4_0@@6B@ DATA
??_7DecimalFormatSymbols@icu_4_0@@6B@ DATA
??_7FieldPosition@icu_4_0@@6B@ DATA
??_7Format@icu_4_0@@6B@ DATA
??_7Formattable@icu_4_0@@6B@ DATA
??_7GregorianCalendar@icu_4_0@@6B@ DATA
??_7InitialTimeZoneRule@icu_4_0@@6B@ DATA
??_7Measure@icu_4_0@@6B@ DATA
??_7MeasureFormat@icu_4_0@@6B@ DATA
??_7MeasureUnit@icu_4_0@@6B@ DATA
??_7MessageFormat@icu_4_0@@6B@ DATA
??_7NumberFormat@icu_4_0@@6B@ DATA
??_7NumberFormatFactory@icu_4_0@@6B@ DATA
??_7PluralFormat@icu_4_0@@6B@ DATA
??_7PluralRules@icu_4_0@@6B@ DATA
??_7RegexMatcher@icu_4_0@@6B@ DATA
??_7RegexPattern@icu_4_0@@6B@ DATA
??_7RuleBasedCollator@icu_4_0@@6B@ DATA
??_7RuleBasedNumberFormat@icu_4_0@@6B@ DATA
??_7RuleBasedTimeZone@icu_4_0@@6B@ DATA
??_7SearchIterator@icu_4_0@@6B@ DATA
??_7SimpleDateFormat@icu_4_0@@6B@ DATA
??_7SimpleNumberFormatFactory@icu_4_0@@6B@ DATA
??_7SimpleTimeZone@icu_4_0@@6B@ DATA
??_7StringList@icu_4_0@@6B@ DATA
??_7StringSearch@icu_4_0@@6B@ DATA
??_7TimeArrayTimeZoneRule@icu_4_0@@6B@ DATA
??_7TimeZone@icu_4_0@@6B@ DATA
??_7TimeZoneRule@icu_4_0@@6B@ DATA
??_7TimeZoneTransition@icu_4_0@@6B@ DATA
??_7Transliterator@icu_4_0@@6B@ DATA
??_7UnicodeReplacer@icu_4_0@@6B@ DATA
??_7VTimeZone@icu_4_0@@6B@ DATA
??_FEcliptic@CalendarAstronomer@icu_4_0@@QAEXXZ
??_FEquatorial@CalendarAstronomer@icu_4_0@@QAEXXZ
??_FHorizon@CalendarAstronomer@icu_4_0@@QAEXXZ
?FULL_MOON@CalendarAstronomer@icu_4_0@@SA?BVMoonAge@12@XZ
?IncrementTime@RegexMatcher@icu_4_0@@AAEXAAW4UErrorCode@@@Z ; has WINAPI (@4)
?MAX_YEAR@AnnualTimeZoneRule@icu_4_0@@2HB DATA
?MatchAt@RegexMatcher@icu_4_0@@AAEXHCAAW4UErrorCode@@@Z ; has WINAPI (@12)
?NEW_MOON@CalendarAstronomer@icu_4_0@@SA?BVMoonAge@12@XZ
?PASS_STRING@CompoundTransliterator@icu_4_0@@2QB_WB DATA
?PI@CalendarAstronomer@icu_4_0@@2NB DATA
?STATICMONTHLENGTH@SimpleTimeZone@icu_4_0@@0QBCB DATA
?SUMMER_SOLSTICE@CalendarAstronomer@icu_4_0@@SANXZ
?SYNODIC_MONTH@CalendarAstronomer@icu_4_0@@2NB DATA
?StateSave@RegexMatcher@icu_4_0@@AAEPAUREStackFrame@2@PAU32@HAAW4UErrorCode@@@Z ; has WINAPI (@12)
?WINTER_SOLSTICE@CalendarAstronomer@icu_4_0@@SANXZ
?_countAvailableSources@Transliterator@icu_4_0@@KAHXZ ; Check!!! forwards to ?count@Hashtable@icu_4_0@@QBEHXZ in icuuc40.dll (ordinal 438)
?_countAvailableTargets@Transliterator@icu_4_0@@KAHABVUnicodeString@2@@Z
?_countAvailableVariants@Transliterator@icu_4_0@@KAHABVUnicodeString@2@0@Z
?_getAvailableSource@Transliterator@icu_4_0@@KAAAVUnicodeString@2@HAAV32@@Z
?_getAvailableTarget@Transliterator@icu_4_0@@KAAAVUnicodeString@2@HABV32@AAV32@@Z
?_getAvailableVariant@Transliterator@icu_4_0@@KAAAVUnicodeString@2@HABV32@0AAV32@@Z
?_registerAlias@Transliterator@icu_4_0@@KAXABVUnicodeString@2@0@Z
?_registerFactory@Transliterator@icu_4_0@@KAXABVUnicodeString@2@P6APAV12@0TToken@12@@Z1@Z
?_registerInstance@Transliterator@icu_4_0@@KAXPAV12@@Z
?_registerSpecialInverse@Transliterator@icu_4_0@@KAXABVUnicodeString@2@0C@Z
?_transliterate@Transliterator@icu_4_0@@ABEXAAVReplaceable@2@AAUUTransPosition@@PBVUnicodeString@2@AAW4UErrorCode@@@Z ; has WINAPI (@16)
?add@CEList@icu_4_0@@AAEXIAAW4UErrorCode@@@Z ; has WINAPI (@8)
?add@Calendar@icu_4_0@@UAEXW4EDateFields@12@HAAW4UErrorCode@@@Z ; has WINAPI (@12)
?add@Calendar@icu_4_0@@UAEXW4UCalendarDateFields@@HAAW4UErrorCode@@@Z ; has WINAPI (@12)
?add@StringList@icu_4_0@@QAEXPBVUnicodeString@2@AAW4UErrorCode@@@Z ; has WINAPI (@8)
?add@StringList@icu_4_0@@QAEXPB_WHAAW4UErrorCode@@@Z ; has WINAPI (@12)
?addCLDRData@DateTimePatternGenerator@icu_4_0@@AAEXABVLocale@2@@Z ; has WINAPI (@4)
?addCanonicalItems@DateTimePatternGenerator@icu_4_0@@AAEXXZ
?addICUPatterns@DateTimePatternGenerator@icu_4_0@@AAEXABVLocale@2@AAW4UErrorCode@@@Z ; has WINAPI (@8)
?addPadding@DecimalFormat@icu_4_0@@ABEXAAVUnicodeString@2@AAVFieldPosition@2@HH@Z ; has WINAPI (@16)
?addPattern@DateTimePatternGenerator@icu_4_0@@QAE?AW4UDateTimePatternConflict@@ABVUnicodeString@2@CAAV42@AAW4UErrorCode@@@Z ; has WINAPI (@16)
?addRules@PluralRules@icu_4_0@@AAEXAAVRuleChain@2@@Z ; has WINAPI (@4)
?addTransitionRule@RuleBasedTimeZone@icu_4_0@@QAEXPAVTimeZoneRule@2@AAW4UErrorCode@@@Z ; has WINAPI (@8)
?adjustFieldTypes@DateTimePatternGenerator@icu_4_0@@AAE?AVUnicodeString@2@ABV32@C@Z ; has WINAPI (@12)
?adjustFieldWidth@DateIntervalFormat@icu_4_0@@CAXABVUnicodeString@2@00CAAV32@@Z
?adopt@CollationKey@icu_4_0@@AAEXPAEH@Z ; has WINAPI (@8)
?adoptArray@Formattable@icu_4_0@@QAEXPAV12@H@Z ; has WINAPI (@8)
?adoptCalendar@DateFormat@icu_4_0@@UAEXPAVCalendar@2@@Z ; has WINAPI (@4)
?adoptCalendar@SimpleDateFormat@icu_4_0@@UAEXPAVCalendar@2@@Z ; has WINAPI (@4)
?adoptDateFormatSymbols@SimpleDateFormat@icu_4_0@@UAEXPAVDateFormatSymbols@2@@Z ; has WINAPI (@4)
?adoptDecimalFormatSymbols@DecimalFormat@icu_4_0@@UAEXPAVDecimalFormatSymbols@2@@Z ; has WINAPI (@4)
?adoptDefault@TimeZone@icu_4_0@@SAXPAV12@@Z
?adoptFilter@Transliterator@icu_4_0@@QAEXPAVUnicodeFilter@2@@Z ; has WINAPI (@4)
?adoptFormat@MessageFormat@icu_4_0@@UAEXABVUnicodeString@2@PAVFormat@2@AAW4UErrorCode@@@Z ; has WINAPI (@12)
?adoptFormat@MessageFormat@icu_4_0@@UAEXHPAVFormat@2@@Z ; has WINAPI (@8)
?adoptFormats@MessageFormat@icu_4_0@@UAEXPAPAVFormat@2@H@Z ; has WINAPI (@8)
?adoptFrom@TimeZoneTransition@icu_4_0@@QAEXPAVTimeZoneRule@2@@Z ; has WINAPI (@4)
?adoptNumberFormat@DateFormat@icu_4_0@@UAEXPAVNumberFormat@2@@Z ; Check!!! Couldn't determine function argument count. Function doesn't return. 
?adoptObject@Formattable@icu_4_0@@QAEXPAVUObject@2@@Z ; has WINAPI (@4)
?adoptString@Formattable@icu_4_0@@QAEXPAVUnicodeString@2@@Z ; has WINAPI (@4)
?adoptTimeZone@Calendar@icu_4_0@@QAEXPAVTimeZone@2@@Z ; has WINAPI (@4)
?adoptTimeZone@DateFormat@icu_4_0@@UAEXPAVTimeZone@2@@Z ; has WINAPI (@4)
?adoptTo@TimeZoneTransition@icu_4_0@@QAEXPAVTimeZoneRule@2@@Z ; has WINAPI (@4)
?adoptTransliterators@CompoundTransliterator@icu_4_0@@QAEXQAPAVTransliterator@2@H@Z ; has WINAPI (@8)
?after@Calendar@icu_4_0@@QBECABV12@AAW4UErrorCode@@@Z ; has WINAPI (@8)
?aggregateStamp@GregorianCalendar@icu_4_0@@AAEHHH@Z ; has WINAPI (@8)
?allocateArgTypes@MessageFormat@icu_4_0@@AAECH@Z ; has WINAPI (@4)
?allocateSubformats@MessageFormat@icu_4_0@@AAECH@Z ; has WINAPI (@4)
?appendAffix@DecimalFormat@icu_4_0@@ABEHAAVUnicodeString@2@NCC@Z ; has WINAPI (@20)
?appendAffixPattern@DecimalFormat@icu_4_0@@ABEXAAVUnicodeString@2@ABV32@C@Z ; has WINAPI (@12)
?appendAffixPattern@DecimalFormat@icu_4_0@@ABEXAAVUnicodeString@2@PBV32@ABV32@C@Z ; has WINAPI (@16)
?appendGMT@SimpleDateFormat@icu_4_0@@ABEXAAVUnicodeString@2@AAVCalendar@2@AAW4UErrorCode@@@Z ; has WINAPI (@12)
?appendReplacement@RegexMatcher@icu_4_0@@UAEAAV12@AAVUnicodeString@2@ABV32@AAW4UErrorCode@@@Z ; has WINAPI (@12)
?appendTail@RegexMatcher@icu_4_0@@UAEAAVUnicodeString@2@AAV32@@Z ; has WINAPI (@4)
?appendUNTIL@VTimeZone@icu_4_0@@ABEXAAVVTZWriter@2@ABVUnicodeString@2@AAW4UErrorCode@@@Z ; has WINAPI (@12)
?applyLocalizedPattern@DecimalFormat@icu_4_0@@UAEXABVUnicodeString@2@AAUUParseError@@AAW4UErrorCode@@@Z ; has WINAPI (@12)
?applyLocalizedPattern@DecimalFormat@icu_4_0@@UAEXABVUnicodeString@2@AAW4UErrorCode@@@Z ; has WINAPI (@8)
?applyLocalizedPattern@SimpleDateFormat@icu_4_0@@UAEXABVUnicodeString@2@AAW4UErrorCode@@@Z ; has WINAPI (@8)
?applyPattern@ChoiceFormat@icu_4_0@@UAEXABVUnicodeString@2@AAUUParseError@@AAW4UErrorCode@@@Z ; has WINAPI (@12)
?applyPattern@ChoiceFormat@icu_4_0@@UAEXABVUnicodeString@2@AAW4UErrorCode@@@Z ; has WINAPI (@8)
?applyPattern@DecimalFormat@icu_4_0@@AAEXABVUnicodeString@2@CAAUUParseError@@AAW4UErrorCode@@@Z ; has WINAPI (@16)
?applyPattern@DecimalFormat@icu_4_0@@UAEXABVUnicodeString@2@AAUUParseError@@AAW4UErrorCode@@@Z ; has WINAPI (@12)
?applyPattern@DecimalFormat@icu_4_0@@UAEXABVUnicodeString@2@AAW4UErrorCode@@@Z ; has WINAPI (@8)
?applyPattern@MessageFormat@icu_4_0@@UAEXABVUnicodeString@2@AAUUParseError@@AAW4UErrorCode@@@Z ; has WINAPI (@12)
?applyPattern@MessageFormat@icu_4_0@@UAEXABVUnicodeString@2@AAW4UErrorCode@@@Z ; has WINAPI (@8)
?applyPattern@PluralFormat@icu_4_0@@QAEXABVUnicodeString@2@AAW4UErrorCode@@@Z ; has WINAPI (@8)
?applyPattern@SimpleDateFormat@icu_4_0@@UAEXABVUnicodeString@2@@Z ; Check!!! forwards to ??4UnicodeString@icu_4_0@@QAEAAV01@ABV01@@Z in icuuc40.dll (ordinal 222)
?areSignificantDigitsUsed@DecimalFormat@icu_4_0@@QBECXZ
?arrayCompare@DateFormatSymbols@icu_4_0@@CACPBVUnicodeString@2@0H@Z
?assignArray@DateFormatSymbols@icu_4_0@@CAXAAPAVUnicodeString@2@AAHPBV32@H@Z
?autoQuoteApostrophe@MessageFormat@icu_4_0@@SA?AVUnicodeString@2@ABV32@AAW4UErrorCode@@@Z
?before@Calendar@icu_4_0@@QBECABV12@AAW4UErrorCode@@@Z ; has WINAPI (@8)
?beginRRULE@VTimeZone@icu_4_0@@ABEXAAVVTZWriter@2@HAAW4UErrorCode@@@Z ; has WINAPI (@12)
?beginZoneProps@VTimeZone@icu_4_0@@ABEXAAVVTZWriter@2@CABVUnicodeString@2@HHNAAW4UErrorCode@@@Z ; has WINAPI (@32)
?boundsCheck@GregorianCalendar@icu_4_0@@ABECHW4UCalendarDateFields@@@Z ; has WINAPI (@8)
?calendarFieldToIntervalIndex@DateIntervalInfo@icu_4_0@@CA?AW4IntervalPatternIndex@12@W4UCalendarDateFields@@AAW4UErrorCode@@@Z
?ceToJD@CECalendar@icu_4_0@@KAHHHHH@Z
?checkOwned@RuleBasedCollator@icu_4_0@@AAEXXZ
?checkSufficientDefinition@PluralFormat@icu_4_0@@AAECXZ
?clear@Calendar@icu_4_0@@QAEXW4UCalendarDateFields@@@Z ; has WINAPI (@4)
?clear@Calendar@icu_4_0@@QAEXXZ
?clearCache@CalendarAstronomer@icu_4_0@@AAEXXZ
?clearTransitionRules@SimpleTimeZone@icu_4_0@@AAEXXZ
?clone@AnnualTimeZoneRule@icu_4_0@@UBEPAV12@XZ
?clone@ChoiceFormat@icu_4_0@@UBEPAVFormat@2@XZ
?clone@CompoundTransliterator@icu_4_0@@UBEPAVTransliterator@2@XZ
?clone@CurrencyAmount@icu_4_0@@UBEPAVUObject@2@XZ
?clone@CurrencyUnit@icu_4_0@@UBEPAVUObject@2@XZ
?clone@DateIntervalFormat@icu_4_0@@UBEPAVFormat@2@XZ
?clone@DateIntervalInfo@icu_4_0@@UBEPAV12@XZ
?clone@DateTimePatternGenerator@icu_4_0@@QBEPAV12@XZ
?clone@DateTimeRule@icu_4_0@@QBEPAV12@XZ
?clone@DecimalFormat@icu_4_0@@UBEPAVFormat@2@XZ
?clone@FieldPosition@icu_4_0@@QBEPAV12@XZ
?clone@Formattable@icu_4_0@@QBEPAV12@XZ
?clone@GregorianCalendar@icu_4_0@@UBEPAVCalendar@2@XZ
?clone@InitialTimeZoneRule@icu_4_0@@UBEPAV12@XZ
?clone@MessageFormat@icu_4_0@@UBEPAVFormat@2@XZ
?clone@PluralFormat@icu_4_0@@UBEPAVFormat@2@XZ
?clone@PluralRules@icu_4_0@@QBEPAV12@XZ
?clone@RegexPattern@icu_4_0@@UBEPAV12@XZ
?clone@RuleBasedCollator@icu_4_0@@UBEPAVCollator@2@XZ
?clone@RuleBasedNumberFormat@icu_4_0@@UBEPAVFormat@2@XZ
?clone@RuleBasedTimeZone@icu_4_0@@UBEPAVTimeZone@2@XZ
?clone@SimpleDateFormat@icu_4_0@@UBEPAVFormat@2@XZ
?clone@SimpleTimeZone@icu_4_0@@UBEPAVTimeZone@2@XZ
?clone@StringSearch@icu_4_0@@QBEPAV12@XZ
?clone@TimeArrayTimeZoneRule@icu_4_0@@UBEPAV12@XZ
?clone@TimeZoneTransition@icu_4_0@@QBEPAV12@XZ
?clone@Transliterator@icu_4_0@@UBEPAV12@XZ
?clone@VTimeZone@icu_4_0@@UBEPAVTimeZone@2@XZ
?cloneBinary@RuleBasedCollator@icu_4_0@@QAEHPAEHAAW4UErrorCode@@@Z ; has WINAPI (@12)
?cloneRuleData@RuleBasedCollator@icu_4_0@@QAEPAEAAHAAW4UErrorCode@@@Z ; has WINAPI (@8)
?close@CollData@icu_4_0@@SAXPAV12@@Z
?collDataCache@CollData@icu_4_0@@0PAVCollDataCache@2@A DATA
?compare@Collator@icu_4_0@@UBE?AW4EComparisonResult@12@ABVUnicodeString@2@0@Z ; has WINAPI (@8)
?compare@Collator@icu_4_0@@UBE?AW4EComparisonResult@12@ABVUnicodeString@2@0H@Z ; has WINAPI (@12)
?compare@Collator@icu_4_0@@UBE?AW4EComparisonResult@12@PB_WH0H@Z ; has WINAPI (@16)
?compare@RuleBasedCollator@icu_4_0@@UBE?AW4EComparisonResult@Collator@2@ABVUnicodeString@2@0@Z ; has WINAPI (@8)
?compare@RuleBasedCollator@icu_4_0@@UBE?AW4EComparisonResult@Collator@2@ABVUnicodeString@2@0H@Z ; has WINAPI (@12)
?compare@RuleBasedCollator@icu_4_0@@UBE?AW4EComparisonResult@Collator@2@PB_WH0H@Z ; has WINAPI (@16)
?compare@RuleBasedCollator@icu_4_0@@UBE?AW4UCollationResult@@ABVUnicodeString@2@0AAW4UErrorCode@@@Z ; has WINAPI (@12)
?compare@RuleBasedCollator@icu_4_0@@UBE?AW4UCollationResult@@ABVUnicodeString@2@0HAAW4UErrorCode@@@Z ; has WINAPI (@16)
?compare@RuleBasedCollator@icu_4_0@@UBE?AW4UCollationResult@@PB_WH0HAAW4UErrorCode@@@Z ; has WINAPI (@20)
?compareAffix@DecimalFormat@icu_4_0@@ABEHABVUnicodeString@2@HCCPA_W@Z ; has WINAPI (@20)
?compareComplexAffix@DecimalFormat@icu_4_0@@ABEHABVUnicodeString@2@0HPA_W@Z ; has WINAPI (@16)
?compareSimpleAffix@DecimalFormat@icu_4_0@@CAHABVUnicodeString@2@0H@Z
?compareTo@CollationKey@icu_4_0@@QBE?AW4EComparisonResult@Collator@2@ABV12@@Z ; has WINAPI (@4)
?compareTo@CollationKey@icu_4_0@@QBE?AW4UCollationResult@@ABV12@AAW4UErrorCode@@@Z ; has WINAPI (@8)
?compareToRule@SimpleTimeZone@icu_4_0@@CAHCCCCCHHW4EMode@12@CCCH@Z
?compile@RegexPattern@icu_4_0@@SAPAV12@ABVUnicodeString@2@AAUUParseError@@AAW4UErrorCode@@@Z
?compile@RegexPattern@icu_4_0@@SAPAV12@ABVUnicodeString@2@IAAUUParseError@@AAW4UErrorCode@@@Z
?compile@RegexPattern@icu_4_0@@SAPAV12@ABVUnicodeString@2@IAAW4UErrorCode@@@Z
?complete@Calendar@icu_4_0@@IAEXAAW4UErrorCode@@@Z ; has WINAPI (@4)
?complete@RuleBasedTimeZone@icu_4_0@@QAEXAAW4UErrorCode@@@Z ; has WINAPI (@4)
?computeFields@Calendar@icu_4_0@@MAEXAAW4UErrorCode@@@Z ; has WINAPI (@4)
?computeGregorianAndDOWFields@Calendar@icu_4_0@@AAEXHAAW4UErrorCode@@@Z ; has WINAPI (@8)
?computeGregorianFields@Calendar@icu_4_0@@IAEXHAAW4UErrorCode@@@Z ; has WINAPI (@8)
?computeJulianDay@Calendar@icu_4_0@@IAEHXZ
?computeJulianDayOfYear@GregorianCalendar@icu_4_0@@CANCHAAC@Z
?computeMaximumContextLength@CompoundTransliterator@icu_4_0@@AAEXXZ
?computeMillisInDay@Calendar@icu_4_0@@IAEHXZ
?computeTime@Calendar@icu_4_0@@MAEXAAW4UErrorCode@@@Z ; has WINAPI (@4)
?computeWeekFields@Calendar@icu_4_0@@AAEXAAW4UErrorCode@@@Z ; has WINAPI (@4)
?computeZoneOffset@Calendar@icu_4_0@@IAEHNHAAW4UErrorCode@@@Z ; has WINAPI (@16)
?concatSingleDate2TimeInterval@DateIntervalFormat@icu_4_0@@AAEXPB_WHABVUnicodeString@2@W4UCalendarDateFields@@AAW4UErrorCode@@@Z ; has WINAPI (@20)
?construct@DecimalFormat@icu_4_0@@AAEXAAW4UErrorCode@@AAUUParseError@@PBVUnicodeString@2@PAVDecimalFormatSymbols@2@@Z ; has WINAPI (@16)
?construct@RuleBasedCollator@icu_4_0@@AAEXABVUnicodeString@2@W4UColAttributeValue@@1AAW4UErrorCode@@@Z ; has WINAPI (@16)
?construct@SimpleDateFormat@icu_4_0@@AAEXW4EStyle@DateFormat@2@0ABVLocale@2@AAW4UErrorCode@@@Z ; has WINAPI (@16)
?construct@SimpleTimeZone@icu_4_0@@AAEXHCCCHW4TimeMode@12@CCCH0HAAW4UErrorCode@@@Z ; has WINAPI (@52)
?copyAndFixQuotes@MessageFormat@icu_4_0@@CAXABVUnicodeString@2@HHAAV32@@Z
?copyData@DateFormatSymbols@icu_4_0@@AAEXABV12@@Z ; has WINAPI (@4)
?copyHash@DateIntervalInfo@icu_4_0@@AAEXPBVHashtable@2@PAV32@AAW4UErrorCode@@@Z ; has WINAPI (@12)
?copyHashtable@DateTimePatternGenerator@icu_4_0@@AAEXPAVHashtable@2@AAW4UErrorCode@@@Z ; has WINAPI (@8)
?copyHashtable@PluralFormat@icu_4_0@@AAEXPAVHashtable@2@AAW4UErrorCode@@@Z ; has WINAPI (@8)
?copyRules@RuleBasedTimeZone@icu_4_0@@AAEPAVUVector@2@PAV32@@Z ; has WINAPI (@4)
?countAvailableIDs@Transliterator@icu_4_0@@SAHXZ
?countAvailableSources@Transliterator@icu_4_0@@SAHXZ
?countAvailableTargets@Transliterator@icu_4_0@@SAHABVUnicodeString@2@@Z
?countAvailableVariants@Transliterator@icu_4_0@@SAHABVUnicodeString@2@0@Z
?countElements@Transliterator@icu_4_0@@QBEHXZ
?countEquivalentIDs@TimeZone@icu_4_0@@SAHABVUnicodeString@2@@Z
?countStartTimes@TimeArrayTimeZoneRule@icu_4_0@@QBEHXZ
?countTransitionRules@RuleBasedTimeZone@icu_4_0@@UAEHAAW4UErrorCode@@@Z ; has WINAPI (@4)
?countTransitionRules@SimpleTimeZone@icu_4_0@@UAEHAAW4UErrorCode@@@Z ; has WINAPI (@4)
?countTransitionRules@VTimeZone@icu_4_0@@UAEHAAW4UErrorCode@@@Z ; Check!!! Couldn't determine function argument count. Function doesn't return. 
?create@DateFormat@icu_4_0@@CAPAV12@W4EStyle@12@0ABVLocale@2@@Z
?create@DateIntervalFormat@icu_4_0@@CAPAV12@PAVDateFormat@2@PAVDateIntervalInfo@2@PBVUnicodeString@2@AAW4UErrorCode@@@Z
?createBasicInstance@Transliterator@icu_4_0@@KAPAV12@ABVUnicodeString@2@PBV32@@Z
?createCanonicalMap@ZoneMeta@icu_4_0@@CAPAVHashtable@2@XZ
?createCollationElementIterator@RuleBasedCollator@icu_4_0@@UBEPAVCollationElementIterator@2@ABVCharacterIterator@2@@Z ; has WINAPI (@4)
?createCollationElementIterator@RuleBasedCollator@icu_4_0@@UBEPAVCollationElementIterator@2@ABVUnicodeString@2@@Z ; has WINAPI (@4)
?createCurrencyFormat@MeasureFormat@icu_4_0@@SAPAV12@AAW4UErrorCode@@@Z
?createCurrencyFormat@MeasureFormat@icu_4_0@@SAPAV12@ABVLocale@2@AAW4UErrorCode@@@Z
?createCurrencyInstance@NumberFormat@icu_4_0@@SAPAV12@AAW4UErrorCode@@@Z
?createCurrencyInstance@NumberFormat@icu_4_0@@SAPAV12@ABVLocale@2@AAW4UErrorCode@@@Z
?createCustomTimeZone@TimeZone@icu_4_0@@CAPAV12@ABVUnicodeString@2@@Z
?createDateInstance@DateFormat@icu_4_0@@SAPAV12@W4EStyle@12@ABVLocale@2@@Z
?createDateTimeInstance@DateFormat@icu_4_0@@SAPAV12@W4EStyle@12@0ABVLocale@2@@Z
?createDefault@TimeZone@icu_4_0@@SAPAV12@XZ
?createDefaultRules@PluralRules@icu_4_0@@SAPAV12@AAW4UErrorCode@@@Z
?createEmptyInstance@DateTimePatternGenerator@icu_4_0@@SAPAV12@AAW4UErrorCode@@@Z
?createEnumeration@TimeZone@icu_4_0@@SAPAVStringEnumeration@2@H@Z
?createEnumeration@TimeZone@icu_4_0@@SAPAVStringEnumeration@2@PBD@Z
?createEnumeration@TimeZone@icu_4_0@@SAPAVStringEnumeration@2@XZ
?createFromRules@Transliterator@icu_4_0@@SAPAV12@ABVUnicodeString@2@0W4UTransDirection@@AAUUParseError@@AAW4UErrorCode@@@Z
?createInstance@Calendar@icu_4_0@@SAPAV12@AAW4UErrorCode@@@Z
?createInstance@Calendar@icu_4_0@@SAPAV12@ABVLocale@2@AAW4UErrorCode@@@Z
?createInstance@Calendar@icu_4_0@@SAPAV12@ABVTimeZone@2@AAW4UErrorCode@@@Z
?createInstance@Calendar@icu_4_0@@SAPAV12@ABVTimeZone@2@ABVLocale@2@AAW4UErrorCode@@@Z
?createInstance@Calendar@icu_4_0@@SAPAV12@PAVTimeZone@2@AAW4UErrorCode@@@Z
?createInstance@Calendar@icu_4_0@@SAPAV12@PAVTimeZone@2@ABVLocale@2@AAW4UErrorCode@@@Z
?createInstance@Collator@icu_4_0@@SAPAV12@AAW4UErrorCode@@@Z
?createInstance@Collator@icu_4_0@@SAPAV12@ABVLocale@2@AAW4UErrorCode@@@Z
?createInstance@DateFormat@icu_4_0@@SAPAV12@XZ
?createInstance@DateIntervalFormat@icu_4_0@@SAPAV12@ABVUnicodeString@2@AAW4UErrorCode@@@Z
?createInstance@DateIntervalFormat@icu_4_0@@SAPAV12@ABVUnicodeString@2@ABVDateIntervalInfo@2@AAW4UErrorCode@@@Z
?createInstance@DateIntervalFormat@icu_4_0@@SAPAV12@ABVUnicodeString@2@ABVLocale@2@AAW4UErrorCode@@@Z
?createInstance@DateIntervalFormat@icu_4_0@@SAPAV12@ABVUnicodeString@2@ABVLocale@2@ABVDateIntervalInfo@2@AAW4UErrorCode@@@Z
?createInstance@DateTimePatternGenerator@icu_4_0@@SAPAV12@AAW4UErrorCode@@@Z
?createInstance@DateTimePatternGenerator@icu_4_0@@SAPAV12@ABVLocale@2@AAW4UErrorCode@@@Z
?createInstance@NumberFormat@icu_4_0@@CAPAV12@ABVLocale@2@W4EStyles@12@AAW4UErrorCode@@@Z
?createInstance@NumberFormat@icu_4_0@@SAPAV12@AAW4UErrorCode@@@Z
?createInstance@NumberFormat@icu_4_0@@SAPAV12@ABVLocale@2@AAW4UErrorCode@@@Z
?createInstance@Transliterator@icu_4_0@@SAPAV12@ABVUnicodeString@2@W4UTransDirection@@AAUUParseError@@AAW4UErrorCode@@@Z
?createInstance@Transliterator@icu_4_0@@SAPAV12@ABVUnicodeString@2@W4UTransDirection@@AAW4UErrorCode@@@Z
?createIntegerFormat@MessageFormat@icu_4_0@@ABEPAVNumberFormat@2@ABVLocale@2@AAW4UErrorCode@@@Z ; has WINAPI (@8)
?createInverse@Transliterator@icu_4_0@@QBEPAV12@AAW4UErrorCode@@@Z ; has WINAPI (@4)
?createMetaToOlsonMap@ZoneMeta@icu_4_0@@CAPAVHashtable@2@XZ
?createOlsonToMetaMap@ZoneMeta@icu_4_0@@CAPAVHashtable@2@XZ
?createPatternInstance@DateFormat@icu_4_0@@SAPAV12@ABVUnicodeString@2@ABVLocale@2@AAW4UErrorCode@@@Z
?createPercentInstance@NumberFormat@icu_4_0@@SAPAV12@AAW4UErrorCode@@@Z
?createPercentInstance@NumberFormat@icu_4_0@@SAPAV12@ABVLocale@2@AAW4UErrorCode@@@Z
?createRules@PluralRules@icu_4_0@@SAPAV12@ABVUnicodeString@2@AAW4UErrorCode@@@Z
?createScientificInstance@NumberFormat@icu_4_0@@SAPAV12@AAW4UErrorCode@@@Z
?createScientificInstance@NumberFormat@icu_4_0@@SAPAV12@ABVLocale@2@AAW4UErrorCode@@@Z
?createSystemTimeZone@TimeZone@icu_4_0@@CAPAV12@ABVUnicodeString@2@@Z
?createTimeInstance@DateFormat@icu_4_0@@SAPAV12@W4EStyle@12@ABVLocale@2@@Z
?createTimeZone@TimeZone@icu_4_0@@SAPAV12@ABVUnicodeString@2@@Z
?createUCollator@Collator@icu_4_0@@SAPAUUCollator@@PBDPAW4UErrorCode@@@Z
?createVTimeZone@VTimeZone@icu_4_0@@SAPAV12@ABVUnicodeString@2@AAW4UErrorCode@@@Z
?createVTimeZoneByID@VTimeZone@icu_4_0@@SAPAV12@ABVUnicodeString@2@@Z
?createZoneStrings@DateFormatSymbols@icu_4_0@@AAEXPBQBVUnicodeString@2@@Z ; has WINAPI (@4)
?decodeEndRule@SimpleTimeZone@icu_4_0@@AAEXAAW4UErrorCode@@@Z ; has WINAPI (@4)
?decodeRules@SimpleTimeZone@icu_4_0@@AAEXAAW4UErrorCode@@@Z ; has WINAPI (@4)
?decodeStartRule@SimpleTimeZone@icu_4_0@@AAEXAAW4UErrorCode@@@Z ; has WINAPI (@4)
?defaultCenturyStart@GregorianCalendar@icu_4_0@@UBENXZ
?defaultCenturyStartYear@GregorianCalendar@icu_4_0@@UBEHXZ
?deleteHash@DateIntervalInfo@icu_4_0@@AAEXPAVHashtable@2@@Z ; has WINAPI (@4)
?deleteRules@RuleBasedTimeZone@icu_4_0@@AAEXXZ
?deleteTransitionRules@SimpleTimeZone@icu_4_0@@AAEXXZ
?deleteTransitions@RuleBasedTimeZone@icu_4_0@@AAEXXZ
?dereferOlsonLink@TimeZone@icu_4_0@@CAAAVUnicodeString@2@ABV32@AAV32@@Z
?dispose@DateFormatSymbols@icu_4_0@@AAEXXZ
?dispose@Formattable@icu_4_0@@AAEXXZ
?dispose@RuleBasedNumberFormat@icu_4_0@@AAEXXZ
?disposeZoneStrings@DateFormatSymbols@icu_4_0@@AAEXXZ
?dtos@ChoiceFormat@icu_4_0@@CAAAVUnicodeString@2@NAAV32@@Z
?eclipticObliquity@CalendarAstronomer@icu_4_0@@AAENXZ
?eclipticToEquatorial@CalendarAstronomer@icu_4_0@@QAEAAVEquatorial@12@AAV312@ABVEcliptic@12@@Z ; has WINAPI (@8)
?eclipticToEquatorial@CalendarAstronomer@icu_4_0@@QAEAAVEquatorial@12@AAV312@N@Z ; has WINAPI (@12)
?eclipticToEquatorial@CalendarAstronomer@icu_4_0@@QAEAAVEquatorial@12@AAV312@NN@Z ; has WINAPI (@20)
?eclipticToHorizon@CalendarAstronomer@icu_4_0@@QAEAAVHorizon@12@AAV312@N@Z ; has WINAPI (@12)
?empty@BoyerMooreSearch@icu_4_0@@QAECXZ
?end@RegexMatcher@icu_4_0@@UBEHAAW4UErrorCode@@@Z ; has WINAPI (@4)
?end@RegexMatcher@icu_4_0@@UBEHHAAW4UErrorCode@@@Z ; has WINAPI (@8)
?endZoneProps@VTimeZone@icu_4_0@@ABEXAAVVTZWriter@2@CAAW4UErrorCode@@@Z ; has WINAPI (@12)
?ensureCapacity@CollationKey@icu_4_0@@AAEAAV12@H@Z ; has WINAPI (@4)
?equals@Calendar@icu_4_0@@QBECABV12@AAW4UErrorCode@@@Z ; has WINAPI (@8)
?equals@Collator@icu_4_0@@QBECABVUnicodeString@2@0@Z ; has WINAPI (@8)
?expandAffix@DecimalFormat@icu_4_0@@ABEXABVUnicodeString@2@AAV32@NC@Z ; has WINAPI (@20)
?expandAffixes@DecimalFormat@icu_4_0@@AAEXXZ
?fallbackFormat@DateIntervalFormat@icu_4_0@@ABEAAVUnicodeString@2@AAVCalendar@2@0AAV32@AAVFieldPosition@2@AAW4UErrorCode@@@Z ; has WINAPI (@20)
?fgCalendarFieldToLevel@SimpleDateFormat@icu_4_0@@0QBHB DATA
?fgCalendarFieldToPatternLetter@DateIntervalFormat@icu_4_0@@0QB_WB DATA
?fgNumberPatterns@DecimalFormat@icu_4_0@@2QBDB DATA
?fgPatternCharToLevel@SimpleDateFormat@icu_4_0@@0QBHB DATA
?fgPatternIndexToCalendarField@SimpleDateFormat@icu_4_0@@0QBW4UCalendarDateFields@@B DATA
?fgPatternIndexToDateFormatField@SimpleDateFormat@icu_4_0@@0QBW4UDateFormatField@@B DATA
?fgSystemDefaultCentury@GregorianCalendar@icu_4_0@@0NB DATA
?fgSystemDefaultCenturyStart@GregorianCalendar@icu_4_0@@0NA DATA
?fgSystemDefaultCenturyStartYear@GregorianCalendar@icu_4_0@@0HA DATA
?fgSystemDefaultCenturyYear@GregorianCalendar@icu_4_0@@0HB DATA
?fieldDifference@Calendar@icu_4_0@@UAEHNW4EDateFields@12@AAW4UErrorCode@@@Z ; has WINAPI (@16)
?fieldDifference@Calendar@icu_4_0@@UAEHNW4UCalendarDateFields@@AAW4UErrorCode@@@Z ; has WINAPI (@16)
?fieldExistsInSkeleton@DateIntervalFormat@icu_4_0@@CACW4UCalendarDateFields@@ABVUnicodeString@2@@Z
?filteredTransliterate@Transliterator@icu_4_0@@EBEXAAVReplaceable@2@AAUUTransPosition@@CC@Z ; has WINAPI (@16)
?filteredTransliterate@Transliterator@icu_4_0@@UBEXAAVReplaceable@2@AAUUTransPosition@@C@Z ; has WINAPI (@12)
?find@RegexMatcher@icu_4_0@@UAECHAAW4UErrorCode@@@Z ; has WINAPI (@8)
?find@RegexMatcher@icu_4_0@@UAECXZ
?findKeyword@MessageFormat@icu_4_0@@CAHABVUnicodeString@2@PBQB_W@Z
?findNext@RuleBasedTimeZone@icu_4_0@@ABECNCAANAAPAVTimeZoneRule@2@1@Z ; has WINAPI (@24)
?findPrev@RuleBasedTimeZone@icu_4_0@@ABECNCAANAAPAVTimeZoneRule@2@1@Z ; has WINAPI (@24)
?findRuleInFinal@RuleBasedTimeZone@icu_4_0@@ABEPAVTimeZoneRule@2@NCHH@Z ; has WINAPI (@20)
?findRuleSet@RuleBasedNumberFormat@icu_4_0@@ABEPAVNFRuleSet@2@ABVUnicodeString@2@AAW4UErrorCode@@@Z ; has WINAPI (@8)
?finishTransliteration@Transliterator@icu_4_0@@UBEXAAVReplaceable@2@AAUUTransPosition@@@Z ; has WINAPI (@8)
?first@SearchIterator@icu_4_0@@QAEHAAW4UErrorCode@@@Z ; has WINAPI (@4)
?flags@RegexPattern@icu_4_0@@UBEIXZ
?flushCollDataCache@CollData@icu_4_0@@SAXXZ
?following@SearchIterator@icu_4_0@@QAEHHAAW4UErrorCode@@@Z ; has WINAPI (@8)
?forLocale@PluralRules@icu_4_0@@SAPAV12@ABVLocale@2@AAW4UErrorCode@@@Z
?format@ChoiceFormat@icu_4_0@@QBEAAVUnicodeString@2@ABVFormattable@2@AAV32@AAW4UErrorCode@@@Z ; has WINAPI (@12)
?format@ChoiceFormat@icu_4_0@@QBEAAVUnicodeString@2@HAAV32@@Z ; has WINAPI (@8)
?format@ChoiceFormat@icu_4_0@@QBEAAVUnicodeString@2@NAAV32@@Z ; has WINAPI (@12)
?format@ChoiceFormat@icu_4_0@@UBEAAVUnicodeString@2@ABVFormattable@2@AAV32@AAVFieldPosition@2@AAW4UErrorCode@@@Z ; has WINAPI (@16)
?format@ChoiceFormat@icu_4_0@@UBEAAVUnicodeString@2@HAAV32@AAVFieldPosition@2@@Z ; has WINAPI (@12)
?format@ChoiceFormat@icu_4_0@@UBEAAVUnicodeString@2@NAAV32@AAVFieldPosition@2@@Z ; has WINAPI (@16)
?format@ChoiceFormat@icu_4_0@@UBEAAVUnicodeString@2@PBVFormattable@2@HAAV32@AAVFieldPosition@2@AAW4UErrorCode@@@Z ; has WINAPI (@20)
?format@ChoiceFormat@icu_4_0@@UBEAAVUnicodeString@2@_JAAV32@AAVFieldPosition@2@@Z ; has WINAPI (@16)
?format@DateFormat@icu_4_0@@QBEAAVUnicodeString@2@ABVFormattable@2@AAV32@AAW4UErrorCode@@@Z ; has WINAPI (@12)
?format@DateFormat@icu_4_0@@QBEAAVUnicodeString@2@NAAV32@@Z ; has WINAPI (@12)
?format@DateFormat@icu_4_0@@QBEAAVUnicodeString@2@NAAV32@AAVFieldPosition@2@@Z ; has WINAPI (@16)
?format@DateFormat@icu_4_0@@UBEAAVUnicodeString@2@ABVFormattable@2@AAV32@AAVFieldPosition@2@AAW4UErrorCode@@@Z ; has WINAPI (@16)
?format@DateIntervalFormat@icu_4_0@@QBEAAVUnicodeString@2@AAVCalendar@2@0AAV32@AAVFieldPosition@2@AAW4UErrorCode@@@Z ; has WINAPI (@20)
?format@DateIntervalFormat@icu_4_0@@QBEAAVUnicodeString@2@PBVDateInterval@2@AAV32@AAVFieldPosition@2@AAW4UErrorCode@@@Z ; has WINAPI (@16)
?format@DateIntervalFormat@icu_4_0@@UBEAAVUnicodeString@2@ABVFormattable@2@AAV32@AAVFieldPosition@2@AAW4UErrorCode@@@Z ; has WINAPI (@16)
?format@DecimalFormat@icu_4_0@@QBEAAVUnicodeString@2@ABVFormattable@2@AAV32@AAW4UErrorCode@@@Z ; has WINAPI (@12)
?format@DecimalFormat@icu_4_0@@QBEAAVUnicodeString@2@HAAV32@@Z ; has WINAPI (@8)
?format@DecimalFormat@icu_4_0@@QBEAAVUnicodeString@2@NAAV32@@Z ; has WINAPI (@12)
?format@DecimalFormat@icu_4_0@@UBEAAVUnicodeString@2@ABVFormattable@2@AAV32@AAVFieldPosition@2@AAW4UErrorCode@@@Z ; has WINAPI (@16)
?format@DecimalFormat@icu_4_0@@UBEAAVUnicodeString@2@HAAV32@AAVFieldPosition@2@@Z ; has WINAPI (@12)
?format@DecimalFormat@icu_4_0@@UBEAAVUnicodeString@2@NAAV32@AAVFieldPosition@2@@Z ; has WINAPI (@16)
?format@DecimalFormat@icu_4_0@@UBEAAVUnicodeString@2@_JAAV32@AAVFieldPosition@2@@Z ; has WINAPI (@16)
?format@Format@icu_4_0@@QBEAAVUnicodeString@2@ABVFormattable@2@AAV32@AAW4UErrorCode@@@Z ; has WINAPI (@12)
?format@MessageFormat@icu_4_0@@ABEAAVUnicodeString@2@PBVFormattable@2@HAAV32@AAVFieldPosition@2@HAAW4UErrorCode@@@Z ; has WINAPI (@24)
?format@MessageFormat@icu_4_0@@ABEAAVUnicodeString@2@PBVFormattable@2@PBV32@HAAV32@AAVFieldPosition@2@HAAW4UErrorCode@@@Z ; has WINAPI (@28)
?format@MessageFormat@icu_4_0@@QBEAAVUnicodeString@2@ABVFormattable@2@AAV32@AAW4UErrorCode@@@Z ; has WINAPI (@12)
?format@MessageFormat@icu_4_0@@QBEAAVUnicodeString@2@PBV32@PBVFormattable@2@HAAV32@AAW4UErrorCode@@@Z ; has WINAPI (@20)
?format@MessageFormat@icu_4_0@@QBEAAVUnicodeString@2@PBVFormattable@2@HAAV32@AAVFieldPosition@2@AAW4UErrorCode@@@Z ; has WINAPI (@20)
?format@MessageFormat@icu_4_0@@SAAAVUnicodeString@2@ABV32@PBVFormattable@2@HAAV32@AAW4UErrorCode@@@Z
?format@MessageFormat@icu_4_0@@UBEAAVUnicodeString@2@ABVFormattable@2@AAV32@AAVFieldPosition@2@AAW4UErrorCode@@@Z ; has WINAPI (@16)
?format@NumberFormat@icu_4_0@@QBEAAVUnicodeString@2@ABVFormattable@2@AAV32@AAW4UErrorCode@@@Z ; has WINAPI (@12)
?format@NumberFormat@icu_4_0@@QBEAAVUnicodeString@2@HAAV32@@Z ; has WINAPI (@8)
?format@NumberFormat@icu_4_0@@QBEAAVUnicodeString@2@NAAV32@@Z ; has WINAPI (@12)
?format@NumberFormat@icu_4_0@@QBEAAVUnicodeString@2@_JAAV32@@Z ; has WINAPI (@12)
?format@NumberFormat@icu_4_0@@UBEAAVUnicodeString@2@ABVFormattable@2@AAV32@AAVFieldPosition@2@AAW4UErrorCode@@@Z ; has WINAPI (@16)
?format@NumberFormat@icu_4_0@@UBEAAVUnicodeString@2@_JAAV32@AAVFieldPosition@2@@Z ; has WINAPI (@16)
?format@PluralFormat@icu_4_0@@QBE?AVUnicodeString@2@HAAW4UErrorCode@@@Z ; has WINAPI (@12)
?format@PluralFormat@icu_4_0@@QBE?AVUnicodeString@2@NAAW4UErrorCode@@@Z ; has WINAPI (@16)
?format@PluralFormat@icu_4_0@@QBEAAVUnicodeString@2@HAAV32@AAVFieldPosition@2@AAW4UErrorCode@@@Z ; has WINAPI (@16)
?format@PluralFormat@icu_4_0@@QBEAAVUnicodeString@2@NAAV32@AAVFieldPosition@2@AAW4UErrorCode@@@Z ; has WINAPI (@20)
?format@PluralFormat@icu_4_0@@UBEAAVUnicodeString@2@ABVFormattable@2@AAV32@AAVFieldPosition@2@AAW4UErrorCode@@@Z ; has WINAPI (@16)
?format@RuleBasedNumberFormat@icu_4_0@@QBEAAVUnicodeString@2@ABVFormattable@2@AAV32@AAW4UErrorCode@@@Z ; has WINAPI (@12)
?format@RuleBasedNumberFormat@icu_4_0@@QBEAAVUnicodeString@2@HAAV32@@Z ; has WINAPI (@8)
?format@RuleBasedNumberFormat@icu_4_0@@QBEAAVUnicodeString@2@NAAV32@@Z ; has WINAPI (@12)
?format@RuleBasedNumberFormat@icu_4_0@@UBEAAVUnicodeString@2@ABVFormattable@2@AAV32@AAVFieldPosition@2@AAW4UErrorCode@@@Z ; has WINAPI (@16)
?format@RuleBasedNumberFormat@icu_4_0@@UBEAAVUnicodeString@2@HAAV32@AAVFieldPosition@2@@Z ; has WINAPI (@12)
?format@RuleBasedNumberFormat@icu_4_0@@UBEAAVUnicodeString@2@HABV32@AAV32@AAVFieldPosition@2@AAW4UErrorCode@@@Z ; has WINAPI (@20)
?format@RuleBasedNumberFormat@icu_4_0@@UBEAAVUnicodeString@2@NAAV32@AAVFieldPosition@2@@Z ; has WINAPI (@16)
?format@RuleBasedNumberFormat@icu_4_0@@UBEAAVUnicodeString@2@NABV32@AAV32@AAVFieldPosition@2@AAW4UErrorCode@@@Z ; has WINAPI (@24)
?format@RuleBasedNumberFormat@icu_4_0@@UBEAAVUnicodeString@2@_JAAV32@AAVFieldPosition@2@@Z ; has WINAPI (@16)
?format@RuleBasedNumberFormat@icu_4_0@@UBEAAVUnicodeString@2@_JABV32@AAV32@AAVFieldPosition@2@AAW4UErrorCode@@@Z ; has WINAPI (@24)
?format@SimpleDateFormat@icu_4_0@@QBEAAVUnicodeString@2@ABVFormattable@2@AAV32@AAW4UErrorCode@@@Z ; has WINAPI (@12)
?format@SimpleDateFormat@icu_4_0@@QBEAAVUnicodeString@2@NAAV32@@Z ; has WINAPI (@12)
?format@SimpleDateFormat@icu_4_0@@QBEAAVUnicodeString@2@NAAV32@AAVFieldPosition@2@@Z ; has WINAPI (@16)
?format@SimpleDateFormat@icu_4_0@@UBEAAVUnicodeString@2@AAVCalendar@2@AAV32@AAVFieldPosition@2@@Z ; has WINAPI (@12)
?format@SimpleDateFormat@icu_4_0@@UBEAAVUnicodeString@2@ABVFormattable@2@AAV32@AAVFieldPosition@2@AAW4UErrorCode@@@Z ; has WINAPI (@16)
?formatCustomID@TimeZone@icu_4_0@@CAAAVUnicodeString@2@HHHCAAV32@@Z
?formatGMTDefault@SimpleDateFormat@icu_4_0@@ABEXAAVUnicodeString@2@H@Z ; has WINAPI (@8)
?formatRFC822TZ@SimpleDateFormat@icu_4_0@@ABEXAAVUnicodeString@2@H@Z ; has WINAPI (@8)
?freeCEList@CollData@icu_4_0@@QAEXPBVCEList@2@@Z ; has WINAPI (@4)
?freeCollDataCache@CollData@icu_4_0@@SAXXZ
?freeTransliterators@CompoundTransliterator@icu_4_0@@AAEXXZ
?get2DigitYearStart@SimpleDateFormat@icu_4_0@@QBENAAW4UErrorCode@@@Z ; has WINAPI (@4)
?get@CEList@icu_4_0@@QBEIH@Z ; has WINAPI (@4)
?get@Calendar@icu_4_0@@QBEHW4UCalendarDateFields@@AAW4UErrorCode@@@Z ; has WINAPI (@8)
?get@StringList@icu_4_0@@QBEPBVUnicodeString@2@H@Z ; has WINAPI (@4)
?getActualHelper@Calendar@icu_4_0@@ABEHW4UCalendarDateFields@@HHAAW4UErrorCode@@@Z ; has WINAPI (@16)
?getActualMaximum@Calendar@icu_4_0@@UBEHW4UCalendarDateFields@@AAW4UErrorCode@@@Z ; has WINAPI (@8)
?getActualMaximum@GregorianCalendar@icu_4_0@@UBEHW4UCalendarDateFields@@AAW4UErrorCode@@@Z ; has WINAPI (@8)
?getActualMinimum@Calendar@icu_4_0@@QBEHW4EDateFields@12@AAW4UErrorCode@@@Z ; Check!!! Couldn't determine function argument count. Function doesn't return. 
?getActualMinimum@Calendar@icu_4_0@@UBEHW4UCalendarDateFields@@AAW4UErrorCode@@@Z ; has WINAPI (@8)
?getActualMinimum@GregorianCalendar@icu_4_0@@QBEHW4EDateFields@Calendar@2@@Z ; Check!!! Couldn't determine function argument count. Function doesn't return. 
?getActualMinimum@GregorianCalendar@icu_4_0@@QBEHW4EDateFields@Calendar@2@AAW4UErrorCode@@@Z ; has WINAPI (@8)
?getActualMinimum@GregorianCalendar@icu_4_0@@UBEHW4UCalendarDateFields@@AAW4UErrorCode@@@Z ; has WINAPI (@8)
?getAmPmStrings@DateFormatSymbols@icu_4_0@@QBEPBVUnicodeString@2@AAH@Z ; has WINAPI (@4)
?getAppendFormatNumber@DateTimePatternGenerator@icu_4_0@@ABE?AW4UDateTimePatternField@@PBD@Z ; has WINAPI (@4)
?getAppendItemFormat@DateTimePatternGenerator@icu_4_0@@QBEABVUnicodeString@2@W4UDateTimePatternField@@@Z ; has WINAPI (@4)
?getAppendItemName@DateTimePatternGenerator@icu_4_0@@QBEABVUnicodeString@2@W4UDateTimePatternField@@@Z ; has WINAPI (@4)
?getAppendName@DateTimePatternGenerator@icu_4_0@@AAEXW4UDateTimePatternField@@AAVUnicodeString@2@@Z ; has WINAPI (@8)
?getAppendNameNumber@DateTimePatternGenerator@icu_4_0@@ABE?AW4UDateTimePatternField@@PBD@Z ; has WINAPI (@4)
?getArgTypeList@MessageFormat@icu_4_0@@ABEPBW4Type@Formattable@2@AAH@Z ; has WINAPI (@4)
?getArray@Formattable@icu_4_0@@QBEPBV12@AAH@Z ; has WINAPI (@4)
?getArray@Formattable@icu_4_0@@QBEPBV12@AAHAAW4UErrorCode@@@Z ; has WINAPI (@8)
?getAttribute@RuleBasedCollator@icu_4_0@@UAE?AW4UColAttributeValue@@W4UColAttribute@@AAW4UErrorCode@@@Z ; has WINAPI (@8)
?getAttribute@SearchIterator@icu_4_0@@QBE?AW4USearchAttributeValue@@W4USearchAttribute@@@Z ; has WINAPI (@4)
?getAvailableID@Transliterator@icu_4_0@@SAABVUnicodeString@2@H@Z
?getAvailableIDs@Transliterator@icu_4_0@@SAPAVStringEnumeration@2@AAW4UErrorCode@@@Z
?getAvailableLocales@Calendar@icu_4_0@@SAPBVLocale@2@AAH@Z ; Check!!! forwards to ?getAvailableLocales@Locale@icu_4_0@@SAPBV12@AAH@Z in icuuc40.dll (ordinal 563)
?getAvailableLocales@Collator@icu_4_0@@SAPAVStringEnumeration@2@XZ
?getAvailableLocales@Collator@icu_4_0@@SAPBVLocale@2@AAH@Z
?getAvailableLocales@DateFormat@icu_4_0@@SAPBVLocale@2@AAH@Z ; Check!!! forwards to ?getAvailableLocales@Locale@icu_4_0@@SAPBV12@AAH@Z in icuuc40.dll (ordinal 563)
?getAvailableLocales@NumberFormat@icu_4_0@@SAPAVStringEnumeration@2@XZ
?getAvailableLocales@NumberFormat@icu_4_0@@SAPBVLocale@2@AAH@Z ; Check!!! forwards to ?getAvailableLocales@Locale@icu_4_0@@SAPBV12@AAH@Z in icuuc40.dll (ordinal 563)
?getAvailableSource@Transliterator@icu_4_0@@SAAAVUnicodeString@2@HAAV32@@Z
?getAvailableTarget@Transliterator@icu_4_0@@SAAAVUnicodeString@2@HABV32@AAV32@@Z
?getAvailableVariant@Transliterator@icu_4_0@@SAAAVUnicodeString@2@HABV32@0AAV32@@Z
?getBadCharacterTable@BoyerMooreSearch@icu_4_0@@QAEPAVBadCharacterTable@2@XZ
?getBaseSkeleton@DateTimePatternGenerator@icu_4_0@@QAE?AVUnicodeString@2@ABV32@AAW4UErrorCode@@@Z ; has WINAPI (@12)
?getBaseSkeletons@DateTimePatternGenerator@icu_4_0@@QBEPAVStringEnumeration@2@AAW4UErrorCode@@@Z ; has WINAPI (@4)
?getBeginIndex@FieldPosition@icu_4_0@@QBEHXZ
?getBestAppending@DateTimePatternGenerator@icu_4_0@@AAE?AVUnicodeString@2@H@Z ; has WINAPI (@8)
?getBestPattern@DateTimePatternGenerator@icu_4_0@@QAE?AVUnicodeString@2@ABV32@AAW4UErrorCode@@@Z ; has WINAPI (@12)
?getBestRaw@DateTimePatternGenerator@icu_4_0@@AAEPBVUnicodeString@2@AAVDateTimeMatcher@2@HPAVDistanceInfo@2@@Z ; has WINAPI (@12)
?getBestSkeleton@DateIntervalInfo@icu_4_0@@ABEPBVUnicodeString@2@ABV32@AAC@Z ; has WINAPI (@8)
?getBogus@Formattable@icu_4_0@@ABEPAVUnicodeString@2@XZ
?getBound@Collator@icu_4_0@@SAHPBEHW4UColBoundMode@@IPAEHAAW4UErrorCode@@@Z
?getBreakIterator@SearchIterator@icu_4_0@@QBEPBVBreakIterator@2@XZ
?getByteArray@CollationKey@icu_4_0@@QBEPBEAAH@Z ; has WINAPI (@4)
?getCEList@CollData@icu_4_0@@QBEPBVCEList@2@PBVUnicodeString@2@@Z ; has WINAPI (@4)
?getCJKPattern@DateTimePatternGenerator@icu_4_0@@AAE?AVUnicodeString@2@ABV32@@Z ; has WINAPI (@8)
?getCalendar@DateFormat@icu_4_0@@UBEPBVCalendar@2@XZ
?getCanonicalCountry@ZoneMeta@icu_4_0@@SAAAVUnicodeString@2@ABV32@AAV32@@Z
?getCanonicalID@TimeZone@icu_4_0@@SAAAVUnicodeString@2@ABV32@AAV32@AACAAW4UErrorCode@@@Z
?getCanonicalID@TimeZone@icu_4_0@@SAAAVUnicodeString@2@ABV32@AAV32@AAW4UErrorCode@@@Z
?getCanonicalInfo@ZoneMeta@icu_4_0@@CAPBUCanonicalMapEntry@2@ABVUnicodeString@2@@Z
?getCanonicalSystemID@ZoneMeta@icu_4_0@@SAAAVUnicodeString@2@ABV32@AAV32@AAW4UErrorCode@@@Z
?getClosures@ChoiceFormat@icu_4_0@@UBEPBCAAH@Z ; has WINAPI (@4)
?getCollDataCache@CollData@icu_4_0@@CAPAVCollDataCache@2@XZ
?getCollationKey@RuleBasedCollator@icu_4_0@@UBEAAVCollationKey@2@ABVUnicodeString@2@AAV32@AAW4UErrorCode@@@Z ; has WINAPI (@12)
?getCollationKey@RuleBasedCollator@icu_4_0@@UBEAAVCollationKey@2@PB_WHAAV32@AAW4UErrorCode@@@Z ; has WINAPI (@16)
?getCollator@CollData@icu_4_0@@QBEPAUUCollator@@XZ
?getCollator@RuleBasedNumberFormat@icu_4_0@@ABEPAVCollator@2@XZ
?getCollator@StringSearch@icu_4_0@@QBEPAVRuleBasedCollator@2@XZ
?getConstSymbol@DecimalFormat@icu_4_0@@ABEABVUnicodeString@2@W4ENumberFormatSymbol@DecimalFormatSymbols@2@@Z ; has WINAPI (@4)
?getConstSymbol@DecimalFormatSymbols@icu_4_0@@QBEABVUnicodeString@2@W4ENumberFormatSymbol@12@@Z ; has WINAPI (@4)
?getCount@CompoundTransliterator@icu_4_0@@UBEHXZ
?getCurrency@CurrencyAmount@icu_4_0@@QBEABVCurrencyUnit@2@XZ
?getCurrency@NumberFormat@icu_4_0@@QBEPB_WXZ
?getCurrencyPattern@DecimalFormatSymbols@icu_4_0@@QBEPB_WXZ
?getCurrentEra@JapaneseCalendar@icu_4_0@@SAIXZ
?getCustomID@TimeZone@icu_4_0@@CAAAVUnicodeString@2@ABV32@AAV32@AAW4UErrorCode@@@Z
?getDSTSavings@SimpleTimeZone@icu_4_0@@UBEHXZ
?getDSTSavings@TimeZone@icu_4_0@@UBEHXZ
?getDSTSavings@TimeZoneRule@icu_4_0@@QBEHXZ
?getData@BoyerMooreSearch@icu_4_0@@QAEPAVCollData@2@XZ
?getDate@Formattable@icu_4_0@@QBENAAW4UErrorCode@@@Z ; has WINAPI (@4)
?getDate@Formattable@icu_4_0@@QBENXZ
?getDateFormat@DateIntervalFormat@icu_4_0@@QBEPBVDateFormat@2@XZ
?getDateFormatSymbols@SimpleDateFormat@icu_4_0@@UBEPBVDateFormatSymbols@2@XZ
?getDateIntervalInfo@DateIntervalFormat@icu_4_0@@QBEPBVDateIntervalInfo@2@XZ
?getDateRuleType@DateTimeRule@icu_4_0@@QBE?AW4DateRuleType@12@XZ
?getDateTimeFormat@DateTimePatternGenerator@icu_4_0@@QBEABVUnicodeString@2@XZ
?getDateTimeSkeleton@DateIntervalFormat@icu_4_0@@CAXABVUnicodeString@2@AAV32@111@Z
?getDecimal@DateTimePatternGenerator@icu_4_0@@QBEABVUnicodeString@2@XZ
?getDecimalFormatSymbols@DecimalFormat@icu_4_0@@UBEPBVDecimalFormatSymbols@2@XZ
?getDecimalFormatSymbols@RuleBasedNumberFormat@icu_4_0@@ABEPAVDecimalFormatSymbols@2@XZ
?getDefaultDateFormat@MessageFormat@icu_4_0@@ABEPBVDateFormat@2@AAW4UErrorCode@@@Z ; has WINAPI (@4)
?getDefaultDayInMonth@Calendar@icu_4_0@@MAEHH@Z ; has WINAPI (@4)
?getDefaultMonthInYear@Calendar@icu_4_0@@MAEHXZ
?getDefaultNumberFormat@MessageFormat@icu_4_0@@ABEPBVNumberFormat@2@AAW4UErrorCode@@@Z ; has WINAPI (@4)
?getDefaultOrder@DateIntervalInfo@icu_4_0@@QBECXZ
?getDefaultRuleSet@RuleBasedNumberFormat@icu_4_0@@ABEPAVNFRuleSet@2@XZ
?getDefaultRuleSetName@RuleBasedNumberFormat@icu_4_0@@UBE?AVUnicodeString@2@XZ ; has WINAPI (@4)
?getDisplayName@Collator@icu_4_0@@SAAAVUnicodeString@2@ABVLocale@2@0AAV32@@Z
?getDisplayName@Collator@icu_4_0@@SAAAVUnicodeString@2@ABVLocale@2@AAV32@@Z
?getDisplayName@CollatorFactory@icu_4_0@@UAEAAVUnicodeString@2@ABVLocale@2@0AAV32@@Z ; has WINAPI (@12)
?getDisplayName@TimeZone@icu_4_0@@QBEAAVUnicodeString@2@AAV32@@Z ; has WINAPI (@4)
?getDisplayName@TimeZone@icu_4_0@@QBEAAVUnicodeString@2@ABVLocale@2@AAV32@@Z ; has WINAPI (@8)
?getDisplayName@TimeZone@icu_4_0@@QBEAAVUnicodeString@2@CW4EDisplayType@12@AAV32@@Z ; has WINAPI (@12)
?getDisplayName@TimeZone@icu_4_0@@QBEAAVUnicodeString@2@CW4EDisplayType@12@ABVLocale@2@AAV32@@Z ; has WINAPI (@16)
?getDisplayName@Transliterator@icu_4_0@@SAAAVUnicodeString@2@ABV32@AAV32@@Z
?getDisplayName@Transliterator@icu_4_0@@SAAAVUnicodeString@2@ABV32@ABVLocale@2@AAV32@@Z
?getDouble@Formattable@icu_4_0@@QBENAAW4UErrorCode@@@Z ; has WINAPI (@4)
?getDouble@Formattable@icu_4_0@@QBENXZ
?getDynamicClassID@AnnualTimeZoneRule@icu_4_0@@UBEPAXXZ
?getDynamicClassID@BoyerMooreSearch@icu_4_0@@UBEPAXXZ
?getDynamicClassID@CEList@icu_4_0@@UBEPAXXZ
?getDynamicClassID@ChoiceFormat@icu_4_0@@UBEPAXXZ
?getDynamicClassID@CollData@icu_4_0@@UBEPAXXZ
?getDynamicClassID@CollationElementIterator@icu_4_0@@UBEPAXXZ
?getDynamicClassID@CollationKey@icu_4_0@@UBEPAXXZ
?getDynamicClassID@CompoundTransliterator@icu_4_0@@UBEPAXXZ
?getDynamicClassID@CurrencyAmount@icu_4_0@@UBEPAXXZ
?getDynamicClassID@CurrencyUnit@icu_4_0@@UBEPAXXZ
?getDynamicClassID@DateFormatSymbols@icu_4_0@@UBEPAXXZ
?getDynamicClassID@DateIntervalFormat@icu_4_0@@UBEPAXXZ
?getDynamicClassID@DateIntervalInfo@icu_4_0@@UBEPAXXZ
?getDynamicClassID@DateTimePatternGenerator@icu_4_0@@UBEPAXXZ
?getDynamicClassID@DateTimeRule@icu_4_0@@UBEPAXXZ
?getDynamicClassID@DecimalFormat@icu_4_0@@UBEPAXXZ
?getDynamicClassID@DecimalFormatSymbols@icu_4_0@@UBEPAXXZ
?getDynamicClassID@FieldPosition@icu_4_0@@UBEPAXXZ
?getDynamicClassID@Formattable@icu_4_0@@UBEPAXXZ
?getDynamicClassID@GregorianCalendar@icu_4_0@@UBEPAXXZ
?getDynamicClassID@InitialTimeZoneRule@icu_4_0@@UBEPAXXZ
?getDynamicClassID@MessageFormat@icu_4_0@@UBEPAXXZ
?getDynamicClassID@PluralFormat@icu_4_0@@UBEPAXXZ
?getDynamicClassID@PluralRules@icu_4_0@@UBEPAXXZ
?getDynamicClassID@RegexMatcher@icu_4_0@@UBEPAXXZ
?getDynamicClassID@RegexPattern@icu_4_0@@UBEPAXXZ
?getDynamicClassID@RuleBasedCollator@icu_4_0@@UBEPAXXZ
?getDynamicClassID@RuleBasedNumberFormat@icu_4_0@@UBEPAXXZ
?getDynamicClassID@RuleBasedTimeZone@icu_4_0@@UBEPAXXZ
?getDynamicClassID@SimpleDateFormat@icu_4_0@@UBEPAXXZ
?getDynamicClassID@SimpleTimeZone@icu_4_0@@UBEPAXXZ
?getDynamicClassID@StringList@icu_4_0@@UBEPAXXZ
?getDynamicClassID@StringSearch@icu_4_0@@UBEPAXXZ
?getDynamicClassID@TimeArrayTimeZoneRule@icu_4_0@@UBEPAXXZ
?getDynamicClassID@TimeZoneTransition@icu_4_0@@UBEPAXXZ
?getDynamicClassID@VTimeZone@icu_4_0@@UBEPAXXZ
?getECollationStrength@RuleBasedCollator@icu_4_0@@ABE?AW4ECollationStrength@Collator@2@ABW4UColAttributeValue@@@Z ; has WINAPI (@4)
?getEComparisonResult@RuleBasedCollator@icu_4_0@@ABE?AW4EComparisonResult@Collator@2@ABW4UCollationResult@@@Z ; has WINAPI (@4)
?getEffectiveCurrency@DecimalFormat@icu_4_0@@MBEXPA_WAAW4UErrorCode@@@Z ; has WINAPI (@8)
?getEffectiveCurrency@NumberFormat@icu_4_0@@MBEXPA_WAAW4UErrorCode@@@Z ; has WINAPI (@8)
?getElement@Transliterator@icu_4_0@@QBEABV12@HAAW4UErrorCode@@@Z ; has WINAPI (@8)
?getEndIndex@FieldPosition@icu_4_0@@QBEHXZ
?getEndYear@AnnualTimeZoneRule@icu_4_0@@QBEHXZ
?getEpochDay@GregorianCalendar@icu_4_0@@MAENAAW4UErrorCode@@@Z ; has WINAPI (@4)
?getEquivalentID@TimeZone@icu_4_0@@SA?BVUnicodeString@2@ABV32@H@Z
?getEraNames@DateFormatSymbols@icu_4_0@@QBEPBVUnicodeString@2@AAH@Z ; has WINAPI (@4)
?getEras@DateFormatSymbols@icu_4_0@@QBEPBVUnicodeString@2@AAH@Z ; has WINAPI (@4)
?getFallbackIntervalPattern@DateIntervalInfo@icu_4_0@@QBEAAVUnicodeString@2@AAV32@@Z ; has WINAPI (@4)
?getField@FieldPosition@icu_4_0@@QBEHXZ
?getFieldResolutionTable@Calendar@icu_4_0@@MBEPAY1M@7$$CBHXZ
?getFilter@Transliterator@icu_4_0@@QBEPBVUnicodeFilter@2@XZ
?getFinalStart@AnnualTimeZoneRule@icu_4_0@@UBECHHAAN@Z ; has WINAPI (@12)
?getFinalStart@InitialTimeZoneRule@icu_4_0@@UBECHHAAN@Z ; has WINAPI (@12)
?getFinalStart@TimeArrayTimeZoneRule@icu_4_0@@UBECHHAAN@Z ; has WINAPI (@12)
?getFirstDayOfWeek@Calendar@icu_4_0@@QBE?AW4EDaysOfWeek@12@XZ
?getFirstDayOfWeek@Calendar@icu_4_0@@QBE?AW4UCalendarDaysOfWeek@@AAW4UErrorCode@@@Z ; has WINAPI (@4)
?getFirstStart@AnnualTimeZoneRule@icu_4_0@@UBECHHAAN@Z ; has WINAPI (@12)
?getFirstStart@InitialTimeZoneRule@icu_4_0@@UBECHHAAN@Z ; has WINAPI (@12)
?getFirstStart@TimeArrayTimeZoneRule@icu_4_0@@UBECHHAAN@Z ; has WINAPI (@12)
?getFormat@MessageFormat@icu_4_0@@UAEPAVFormat@2@ABVUnicodeString@2@AAW4UErrorCode@@@Z ; has WINAPI (@8)
?getFormatNames@MessageFormat@icu_4_0@@UAEPAVStringEnumeration@2@AAW4UErrorCode@@@Z ; has WINAPI (@4)
?getFormatWidth@DecimalFormat@icu_4_0@@UBEHXZ
?getFormats@ChoiceFormat@icu_4_0@@UBEPBVUnicodeString@2@AAH@Z ; has WINAPI (@4)
?getFormats@MessageFormat@icu_4_0@@UBEPAPBVFormat@2@AAH@Z ; has WINAPI (@4)
?getFrom@TimeZoneTransition@icu_4_0@@QBEPBVTimeZoneRule@2@XZ
?getFunctionalEquivalent@Collator@icu_4_0@@SA?AVLocale@2@PBDABV32@AACAAW4UErrorCode@@@Z
?getGMT@TimeZone@icu_4_0@@SAPBV12@XZ
?getGoodSuffixTable@BoyerMooreSearch@icu_4_0@@QAEPAVGoodSuffixTable@2@XZ
?getGreatestMinimum@Calendar@icu_4_0@@UBEHW4EDateFields@12@@Z ; has WINAPI (@4)
?getGreatestMinimum@Calendar@icu_4_0@@UBEHW4UCalendarDateFields@@@Z ; has WINAPI (@4)
?getGreenwichSidereal@CalendarAstronomer@icu_4_0@@QAENXZ
?getGregorianChange@GregorianCalendar@icu_4_0@@QBENXZ
?getGregorianDayOfMonth@Calendar@icu_4_0@@IBEHXZ
?getGregorianDayOfYear@Calendar@icu_4_0@@IBEHXZ
?getGregorianMonth@Calendar@icu_4_0@@IBEHXZ
?getGregorianYear@Calendar@icu_4_0@@IBEHXZ
?getGroupingSize@DecimalFormat@icu_4_0@@QBEHXZ
?getID@TimeZone@icu_4_0@@QBEAAVUnicodeString@2@AAV32@@Z ; has WINAPI (@4)
?getID@Transliterator@icu_4_0@@UBEABVUnicodeString@2@XZ
?getISOCurrency@CurrencyAmount@icu_4_0@@QBEPB_WXZ
?getISOCurrency@CurrencyUnit@icu_4_0@@QBEPB_WXZ
?getInt64@Formattable@icu_4_0@@QBE_JAAW4UErrorCode@@@Z ; has WINAPI (@4)
?getInt64@Formattable@icu_4_0@@QBE_JXZ
?getIntervalPattern@DateIntervalInfo@icu_4_0@@QBEAAVUnicodeString@2@ABV32@W4UCalendarDateFields@@AAV32@AAW4UErrorCode@@@Z ; has WINAPI (@16)
?getJulianCentury@CalendarAstronomer@icu_4_0@@QAENXZ
?getJulianDay@CalendarAstronomer@icu_4_0@@QAENXZ
?getKeywordOther@PluralRules@icu_4_0@@QBE?AVUnicodeString@2@XZ ; has WINAPI (@4)
?getKeywordValues@Collator@icu_4_0@@SAPAVStringEnumeration@2@PBDAAW4UErrorCode@@@Z
?getKeywords@Collator@icu_4_0@@SAPAVStringEnumeration@2@AAW4UErrorCode@@@Z
?getKeywords@PluralRules@icu_4_0@@QBEPAVStringEnumeration@2@AAW4UErrorCode@@@Z ; has WINAPI (@4)
?getLastModified@VTimeZone@icu_4_0@@QBECAAN@Z ; has WINAPI (@4)
?getLeastMaximum@Calendar@icu_4_0@@UBEHW4EDateFields@12@@Z ; has WINAPI (@4)
?getLeastMaximum@Calendar@icu_4_0@@UBEHW4UCalendarDateFields@@@Z ; has WINAPI (@4)
?getLimit@Calendar@icu_4_0@@MBEHW4UCalendarDateFields@@W4ELimitType@12@@Z ; has WINAPI (@8)
?getLimits@ChoiceFormat@icu_4_0@@UBEPBNAAH@Z ; has WINAPI (@4)
?getLocalDOW@Calendar@icu_4_0@@IAEHXZ
?getLocalDelta@RuleBasedTimeZone@icu_4_0@@ABEHHHHHHH@Z ; has WINAPI (@24)
?getLocalPatternChars@DateFormatSymbols@icu_4_0@@QBEAAVUnicodeString@2@AAV32@@Z ; has WINAPI (@4)
?getLocalSidereal@CalendarAstronomer@icu_4_0@@QAENXZ
?getLocale@Calendar@icu_4_0@@QBE?AVLocale@2@W4ULocDataLocaleType@@AAW4UErrorCode@@@Z ; has WINAPI (@12)
?getLocale@DateFormatSymbols@icu_4_0@@QBE?AVLocale@2@W4ULocDataLocaleType@@AAW4UErrorCode@@@Z ; has WINAPI (@12)
?getLocale@DecimalFormatSymbols@icu_4_0@@QBE?AVLocale@2@W4ULocDataLocaleType@@AAW4UErrorCode@@@Z ; has WINAPI (@12)
?getLocale@DecimalFormatSymbols@icu_4_0@@QBE?AVLocale@2@XZ ; has WINAPI (@4)
?getLocale@Format@icu_4_0@@QBE?AVLocale@2@W4ULocDataLocaleType@@AAW4UErrorCode@@@Z ; has WINAPI (@12)
?getLocale@MessageFormat@icu_4_0@@UBEABVLocale@2@XZ
?getLocale@RuleBasedCollator@icu_4_0@@UBE?BVLocale@2@W4ULocDataLocaleType@@AAW4UErrorCode@@@Z ; has WINAPI (@12)
?getLocaleID@Calendar@icu_4_0@@QBEPBDW4ULocDataLocaleType@@AAW4UErrorCode@@@Z ; has WINAPI (@8)
?getLocaleID@Format@icu_4_0@@QBEPBDW4ULocDataLocaleType@@AAW4UErrorCode@@@Z ; has WINAPI (@8)
?getLong@Formattable@icu_4_0@@QBEHAAW4UErrorCode@@@Z ; has WINAPI (@4)
?getLong@Formattable@icu_4_0@@QBEHPAW4UErrorCode@@@Z ; has WINAPI (@4)
?getLong@Formattable@icu_4_0@@QBEHXZ
?getMatchCallback@RegexMatcher@icu_4_0@@UAEXAAP6ACPBXH@ZAAPBXAAW4UErrorCode@@@Z ; has WINAPI (@12)
?getMatchedLength@SearchIterator@icu_4_0@@QBEHXZ
?getMatchedStart@SearchIterator@icu_4_0@@QBEHXZ
?getMatchedText@SearchIterator@icu_4_0@@QBEXAAVUnicodeString@2@@Z ; has WINAPI (@4)
?getMaxExpansion@CollationElementIterator@icu_4_0@@QBEHH@Z ; has WINAPI (@4)
?getMaxExpansion@RuleBasedCollator@icu_4_0@@QBEHH@Z ; has WINAPI (@4)
?getMaximum@Calendar@icu_4_0@@UBEHW4EDateFields@12@@Z ; has WINAPI (@4)
?getMaximum@Calendar@icu_4_0@@UBEHW4UCalendarDateFields@@@Z ; has WINAPI (@4)
?getMaximumContextLength@Transliterator@icu_4_0@@QBEHXZ
?getMaximumFractionDigits@NumberFormat@icu_4_0@@QBEHXZ
?getMaximumIntegerDigits@NumberFormat@icu_4_0@@QBEHXZ
?getMaximumSignificantDigits@DecimalFormat@icu_4_0@@QBEHXZ
?getMetazoneID@ZoneMeta@icu_4_0@@SAAAVUnicodeString@2@ABV32@NAAV32@@Z
?getMetazoneMappings@ZoneMeta@icu_4_0@@SAPBVUVector@2@ABVUnicodeString@2@@Z
?getMinimalDaysInFirstWeek@Calendar@icu_4_0@@QBEEXZ
?getMinimum@Calendar@icu_4_0@@UBEHW4EDateFields@12@@Z ; has WINAPI (@4)
?getMinimum@Calendar@icu_4_0@@UBEHW4UCalendarDateFields@@@Z ; has WINAPI (@4)
?getMinimumExponentDigits@DecimalFormat@icu_4_0@@UBECXZ
?getMinimumFractionDigits@NumberFormat@icu_4_0@@QBEHXZ
?getMinimumIntegerDigits@NumberFormat@icu_4_0@@QBEHXZ
?getMinimumSignificantDigits@DecimalFormat@icu_4_0@@QBEHXZ
?getMonths@DateFormatSymbols@icu_4_0@@QBEPBVUnicodeString@2@AAH@Z ; has WINAPI (@4)
?getMonths@DateFormatSymbols@icu_4_0@@QBEPBVUnicodeString@2@AAHW4DtContextType@12@W4DtWidthType@12@@Z ; has WINAPI (@12)
?getMoonAge@CalendarAstronomer@icu_4_0@@QAENXZ
?getMoonPhase@CalendarAstronomer@icu_4_0@@QAENXZ
?getMoonPosition@CalendarAstronomer@icu_4_0@@QAEABVEquatorial@12@XZ
?getMoonRiseSet@CalendarAstronomer@icu_4_0@@QAENC@Z ; has WINAPI (@4)
?getMoonTime@CalendarAstronomer@icu_4_0@@QAENABVMoonAge@12@C@Z ; has WINAPI (@8)
?getMoonTime@CalendarAstronomer@icu_4_0@@QAENNC@Z ; has WINAPI (@12)
?getMultiplier@DecimalFormat@icu_4_0@@QBEHXZ
?getName@TimeZoneRule@icu_4_0@@QBEAAVUnicodeString@2@AAV32@@Z ; has WINAPI (@4)
?getNegativePrefix@DecimalFormat@icu_4_0@@QBEAAVUnicodeString@2@AAV32@@Z ; has WINAPI (@4)
?getNegativeSuffix@DecimalFormat@icu_4_0@@QBEAAVUnicodeString@2@AAV32@@Z ; has WINAPI (@4)
?getNextLocale@PluralRules@icu_4_0@@AAEXABVUnicodeString@2@PAHAAV32@@Z ; has WINAPI (@12)
?getNextStart@AnnualTimeZoneRule@icu_4_0@@UBECNHHCAAN@Z ; has WINAPI (@24)
?getNextStart@InitialTimeZoneRule@icu_4_0@@UBECNHHCAAN@Z ; has WINAPI (@24)
?getNextStart@TimeArrayTimeZoneRule@icu_4_0@@UBECNHHCAAN@Z ; has WINAPI (@24)
?getNextTransition@RuleBasedTimeZone@icu_4_0@@UAECNCAAVTimeZoneTransition@2@@Z ; has WINAPI (@16)
?getNextTransition@SimpleTimeZone@icu_4_0@@UAECNCAAVTimeZoneTransition@2@@Z ; has WINAPI (@16)
?getNextTransition@VTimeZone@icu_4_0@@UAECNCAAVTimeZoneTransition@2@@Z ; has WINAPI (@16)
?getNow@Calendar@icu_4_0@@SANXZ ; Check!!! forwards to uprv_getUTCtime_4_0 in icuuc40.dll (ordinal 1554)
?getNumber@Measure@icu_4_0@@QBEABVFormattable@2@XZ
?getNumberFormat@DateFormat@icu_4_0@@UBEPBVNumberFormat@2@XZ
?getNumberOfRuleSetDisplayNameLocales@RuleBasedNumberFormat@icu_4_0@@UBEHXZ
?getNumberOfRuleSetNames@RuleBasedNumberFormat@icu_4_0@@UBEHXZ
?getNumberValue@PluralRules@icu_4_0@@ABEHABVUnicodeString@2@@Z ; has WINAPI (@4)
?getObject@Formattable@icu_4_0@@QBEPBVUObject@2@XZ
?getOffset@CollationElementIterator@icu_4_0@@QBEHXZ
?getOffset@RuleBasedTimeZone@icu_4_0@@UBEHEHHHEHAAW4UErrorCode@@@Z ; has WINAPI (@28)
?getOffset@RuleBasedTimeZone@icu_4_0@@UBEHEHHHEHHAAW4UErrorCode@@@Z ; has WINAPI (@32)
?getOffset@RuleBasedTimeZone@icu_4_0@@UBEXNCAAH0AAW4UErrorCode@@@Z ; has WINAPI (@24)
?getOffset@SimpleTimeZone@icu_4_0@@UBEHEHHHEHAAW4UErrorCode@@@Z ; has WINAPI (@28)
?getOffset@SimpleTimeZone@icu_4_0@@UBEHEHHHEHHAAW4UErrorCode@@@Z ; has WINAPI (@32)
?getOffset@SimpleTimeZone@icu_4_0@@UBEHEHHHEHHHAAW4UErrorCode@@@Z ; has WINAPI (@36)
?getOffset@SimpleTimeZone@icu_4_0@@UBEXNCAAH0AAW4UErrorCode@@@Z ; has WINAPI (@24)
?getOffset@StringSearch@icu_4_0@@UBEHXZ
?getOffset@TimeZone@icu_4_0@@UBEXNCAAH0AAW4UErrorCode@@@Z ; has WINAPI (@24)
?getOffset@VTimeZone@icu_4_0@@UBEHEHHHEHAAW4UErrorCode@@@Z ; Check!!! Couldn't determine function argument count. Function doesn't return. 
?getOffset@VTimeZone@icu_4_0@@UBEHEHHHEHHAAW4UErrorCode@@@Z ; Check!!! Couldn't determine function argument count. Function doesn't return. 
?getOffset@VTimeZone@icu_4_0@@UBEXNCAAH0AAW4UErrorCode@@@Z ; has WINAPI (@24)
?getOffsetFromLocal@BasicTimeZone@icu_4_0@@UAEXNHHAAH0AAW4UErrorCode@@@Z ; has WINAPI (@28)
?getOffsetFromLocal@RuleBasedTimeZone@icu_4_0@@UAEXNHHAAH0AAW4UErrorCode@@@Z ; has WINAPI (@28)
?getOffsetFromLocal@SimpleTimeZone@icu_4_0@@UAEXNHHAAH0AAW4UErrorCode@@@Z ; has WINAPI (@28)
?getOffsetInternal@RuleBasedTimeZone@icu_4_0@@ABEXNCHHAAH0AAW4UErrorCode@@@Z ; has WINAPI (@32)
?getPadCharacterString@DecimalFormat@icu_4_0@@UBE?AVUnicodeString@2@XZ ; has WINAPI (@4)
?getPadPosition@DecimalFormat@icu_4_0@@UBE?AW4EPadPosition@12@XZ
?getPattern@StringSearch@icu_4_0@@QBEABVUnicodeString@2@XZ
?getPatternCEs@BoyerMooreSearch@icu_4_0@@QAEPAVCEList@2@XZ
?getPatternForSkeleton@DateTimePatternGenerator@icu_4_0@@QBEABVUnicodeString@2@ABV32@@Z ; has WINAPI (@4)
?getPatternUChars@DateFormatSymbols@icu_4_0@@SAPB_WXZ
?getPositivePrefix@DecimalFormat@icu_4_0@@QBEAAVUnicodeString@2@AAV32@@Z ; has WINAPI (@4)
?getPositiveSuffix@DecimalFormat@icu_4_0@@QBEAAVUnicodeString@2@AAV32@@Z ; has WINAPI (@4)
?getPreviousStart@AnnualTimeZoneRule@icu_4_0@@UBECNHHCAAN@Z ; has WINAPI (@24)
?getPreviousStart@InitialTimeZoneRule@icu_4_0@@UBECNHHCAAN@Z ; has WINAPI (@24)
?getPreviousStart@TimeArrayTimeZoneRule@icu_4_0@@UBECNHHCAAN@Z ; has WINAPI (@24)
?getPreviousTransition@RuleBasedTimeZone@icu_4_0@@UAECNCAAVTimeZoneTransition@2@@Z ; has WINAPI (@16)
?getPreviousTransition@SimpleTimeZone@icu_4_0@@UAECNCAAVTimeZoneTransition@2@@Z ; has WINAPI (@16)
?getPreviousTransition@VTimeZone@icu_4_0@@UAECNCAAVTimeZoneTransition@2@@Z ; has WINAPI (@16)
?getQuarters@DateFormatSymbols@icu_4_0@@QBEPBVUnicodeString@2@AAHW4DtContextType@12@W4DtWidthType@12@@Z ; has WINAPI (@12)
?getRawOffset@RuleBasedTimeZone@icu_4_0@@UBEHXZ
?getRawOffset@SimpleTimeZone@icu_4_0@@UBEHXZ
?getRawOffset@TimeZoneRule@icu_4_0@@QBEHXZ
?getRawOffset@VTimeZone@icu_4_0@@UBEHXZ ; Check!!! Couldn't determine function argument count. Function doesn't return. 
?getRedundants@DateTimePatternGenerator@icu_4_0@@QAEPAVStringEnumeration@2@AAW4UErrorCode@@@Z ; has WINAPI (@4)
?getRepeatLimit@PluralRules@icu_4_0@@ABEHXZ
?getRoundingIncrement@DecimalFormat@icu_4_0@@UBENXZ
?getRoundingMode@DecimalFormat@icu_4_0@@UBE?AW4ERoundingMode@12@XZ
?getRule@AnnualTimeZoneRule@icu_4_0@@QBEPBVDateTimeRule@2@XZ
?getRuleDayOfMonth@DateTimeRule@icu_4_0@@QBEHXZ
?getRuleDayOfWeek@DateTimeRule@icu_4_0@@QBEHXZ
?getRuleFromResource@PluralRules@icu_4_0@@AAE?AVUnicodeString@2@ABVLocale@2@AAW4UErrorCode@@@Z ; has WINAPI (@12)
?getRuleMillisInDay@DateTimeRule@icu_4_0@@QBEHXZ
?getRuleMonth@DateTimeRule@icu_4_0@@QBEHXZ
?getRuleSetDisplayName@RuleBasedNumberFormat@icu_4_0@@UAE?AVUnicodeString@2@ABV32@ABVLocale@2@@Z ; has WINAPI (@12)
?getRuleSetDisplayName@RuleBasedNumberFormat@icu_4_0@@UAE?AVUnicodeString@2@HABVLocale@2@@Z ; has WINAPI (@12)
?getRuleSetDisplayNameLocale@RuleBasedNumberFormat@icu_4_0@@UBE?AVLocale@2@HAAW4UErrorCode@@@Z ; has WINAPI (@12)
?getRuleSetName@RuleBasedNumberFormat@icu_4_0@@UBE?AVUnicodeString@2@H@Z ; has WINAPI (@8)
?getRuleWeekInMonth@DateTimeRule@icu_4_0@@QBEHXZ
?getRules@RuleBasedCollator@icu_4_0@@QAEXW4UColRuleOption@@AAVUnicodeString@2@@Z ; has WINAPI (@8)
?getRules@RuleBasedCollator@icu_4_0@@QBEABVUnicodeString@2@XZ
?getRules@RuleBasedNumberFormat@icu_4_0@@UBE?AVUnicodeString@2@XZ ; has WINAPI (@4)
?getSecondaryGroupingSize@DecimalFormat@icu_4_0@@QBEHXZ
?getShortMonths@DateFormatSymbols@icu_4_0@@QBEPBVUnicodeString@2@AAH@Z ; has WINAPI (@4)
?getShortWeekdays@DateFormatSymbols@icu_4_0@@QBEPBVUnicodeString@2@AAH@Z ; has WINAPI (@4)
?getSiderealOffset@CalendarAstronomer@icu_4_0@@AAENXZ
?getSimpleRulesNear@BasicTimeZone@icu_4_0@@UAEXNAAPAVInitialTimeZoneRule@2@AAPAVAnnualTimeZoneRule@2@1AAW4UErrorCode@@@Z ; has WINAPI (@24)
?getSingleCountry@ZoneMeta@icu_4_0@@SAAAVUnicodeString@2@ABV32@AAV32@@Z
?getSkeleton@DateTimePatternGenerator@icu_4_0@@QAE?AVUnicodeString@2@ABV32@AAW4UErrorCode@@@Z ; has WINAPI (@12)
?getSkeletons@DateTimePatternGenerator@icu_4_0@@QBEPAVStringEnumeration@2@AAW4UErrorCode@@@Z ; has WINAPI (@4)
?getSmpFmtLocale@SimpleDateFormat@icu_4_0@@QBEABVLocale@2@XZ
?getSortKey@RuleBasedCollator@icu_4_0@@UBEHABVUnicodeString@2@PAEH@Z ; has WINAPI (@12)
?getSortKey@RuleBasedCollator@icu_4_0@@UBEHPB_WHPAEH@Z ; has WINAPI (@16)
?getSourceSet@Transliterator@icu_4_0@@QBEAAVUnicodeSet@2@AAV32@@Z ; has WINAPI (@4)
?getStackLimit@RegexMatcher@icu_4_0@@UBEHXZ
?getStartInYear@AnnualTimeZoneRule@icu_4_0@@QBECHHHAAN@Z ; has WINAPI (@16)
?getStartTimeAt@TimeArrayTimeZoneRule@icu_4_0@@QBECHAAN@Z ; has WINAPI (@8)
?getStartYear@AnnualTimeZoneRule@icu_4_0@@QBEHXZ
?getStaticClassID@AnnualTimeZoneRule@icu_4_0@@SAPAXXZ
?getStaticClassID@AnyTransliterator@icu_4_0@@SAPAXXZ
?getStaticClassID@BoyerMooreSearch@icu_4_0@@SAPAXXZ
?getStaticClassID@BreakTransliterator@icu_4_0@@SAPAXXZ
?getStaticClassID@BuddhistCalendar@icu_4_0@@SAPAXXZ
?getStaticClassID@CEList@icu_4_0@@SAPAXXZ
?getStaticClassID@CaseMapTransliterator@icu_4_0@@SAPAXXZ
?getStaticClassID@ChineseCalendar@icu_4_0@@SAPAXXZ
?getStaticClassID@ChoiceFormat@icu_4_0@@SAPAXXZ
?getStaticClassID@CollData@icu_4_0@@SAPAXXZ
?getStaticClassID@CollationElementIterator@icu_4_0@@SAPAXXZ
?getStaticClassID@CollationKey@icu_4_0@@SAPAXXZ
?getStaticClassID@CompoundTransliterator@icu_4_0@@SAPAXXZ
?getStaticClassID@CopticCalendar@icu_4_0@@SAPAXXZ
?getStaticClassID@CurrencyAmount@icu_4_0@@SAPAXXZ
?getStaticClassID@CurrencyUnit@icu_4_0@@SAPAXXZ
?getStaticClassID@DateFormatSymbols@icu_4_0@@SAPAXXZ
?getStaticClassID@DateIntervalFormat@icu_4_0@@SAPAXXZ
?getStaticClassID@DateIntervalInfo@icu_4_0@@SAPAXXZ
?getStaticClassID@DateTimePatternGenerator@icu_4_0@@SAPAXXZ
?getStaticClassID@DateTimeRule@icu_4_0@@SAPAXXZ
?getStaticClassID@DecimalFormat@icu_4_0@@SAPAXXZ
?getStaticClassID@DecimalFormatSymbols@icu_4_0@@SAPAXXZ
?getStaticClassID@EscapeTransliterator@icu_4_0@@SAPAXXZ
?getStaticClassID@EthiopicCalendar@icu_4_0@@SAPAXXZ
?getStaticClassID@FieldPosition@icu_4_0@@SAPAXXZ
?getStaticClassID@Formattable@icu_4_0@@SAPAXXZ
?getStaticClassID@GregorianCalendar@icu_4_0@@SAPAXXZ
?getStaticClassID@HebrewCalendar@icu_4_0@@SAPAXXZ
?getStaticClassID@IndianCalendar@icu_4_0@@SAPAXXZ
?getStaticClassID@InitialTimeZoneRule@icu_4_0@@SAPAXXZ
?getStaticClassID@IslamicCalendar@icu_4_0@@SAPAXXZ
?getStaticClassID@JapaneseCalendar@icu_4_0@@SAPAXXZ
?getStaticClassID@LowercaseTransliterator@icu_4_0@@SAPAXXZ
?getStaticClassID@MessageFormat@icu_4_0@@SAPAXXZ
?getStaticClassID@NameUnicodeTransliterator@icu_4_0@@SAPAXXZ
?getStaticClassID@NormalizationTransliterator@icu_4_0@@SAPAXXZ
?getStaticClassID@NullTransliterator@icu_4_0@@SAPAXXZ
?getStaticClassID@NumberFormat@icu_4_0@@SAPAXXZ
?getStaticClassID@OlsonTimeZone@icu_4_0@@SAPAXXZ
?getStaticClassID@PersianCalendar@icu_4_0@@SAPAXXZ
?getStaticClassID@PluralFormat@icu_4_0@@SAPAXXZ
?getStaticClassID@PluralRules@icu_4_0@@SAPAXXZ
?getStaticClassID@RegexMatcher@icu_4_0@@SAPAXXZ
?getStaticClassID@RegexPattern@icu_4_0@@SAPAXXZ
?getStaticClassID@RelativeDateFormat@icu_4_0@@SAPAXXZ
?getStaticClassID@RemoveTransliterator@icu_4_0@@SAPAXXZ
?getStaticClassID@RuleBasedCollator@icu_4_0@@SAPAXXZ
?getStaticClassID@RuleBasedNumberFormat@icu_4_0@@SAPAXXZ
?getStaticClassID@RuleBasedTimeZone@icu_4_0@@SAPAXXZ
?getStaticClassID@RuleBasedTransliterator@icu_4_0@@SAPAXXZ
?getStaticClassID@SimpleDateFormat@icu_4_0@@SAPAXXZ
?getStaticClassID@SimpleTimeZone@icu_4_0@@SAPAXXZ
?getStaticClassID@StringList@icu_4_0@@SAPAXXZ
?getStaticClassID@StringSearch@icu_4_0@@SAPAXXZ
?getStaticClassID@TaiwanCalendar@icu_4_0@@SAPAXXZ
?getStaticClassID@TimeArrayTimeZoneRule@icu_4_0@@SAPAXXZ
?getStaticClassID@TimeZone@icu_4_0@@SAPAXXZ
?getStaticClassID@TimeZoneTransition@icu_4_0@@SAPAXXZ
?getStaticClassID@TitlecaseTransliterator@icu_4_0@@SAPAXXZ
?getStaticClassID@Transliterator@icu_4_0@@SAPAXXZ
?getStaticClassID@UnescapeTransliterator@icu_4_0@@SAPAXXZ
?getStaticClassID@UnicodeNameTransliterator@icu_4_0@@SAPAXXZ
?getStaticClassID@UppercaseTransliterator@icu_4_0@@SAPAXXZ
?getStaticClassID@VTimeZone@icu_4_0@@SAPAXXZ
?getStaticClassID@Win32DateFormat@icu_4_0@@SAPAXXZ
?getStaticClassID@Win32NumberFormat@icu_4_0@@SAPAXXZ
?getStrength@RuleBasedCollator@icu_4_0@@UBE?AW4ECollationStrength@Collator@2@XZ
?getString@Formattable@icu_4_0@@QAEAAVUnicodeString@2@AAW4UErrorCode@@@Z ; has WINAPI (@4)
?getString@Formattable@icu_4_0@@QAEAAVUnicodeString@2@XZ
?getString@Formattable@icu_4_0@@QBEAAVUnicodeString@2@AAV32@@Z ; has WINAPI (@4)
?getString@Formattable@icu_4_0@@QBEAAVUnicodeString@2@AAV32@AAW4UErrorCode@@@Z ; has WINAPI (@8)
?getString@Formattable@icu_4_0@@QBEABVUnicodeString@2@AAW4UErrorCode@@@Z ; has WINAPI (@4)
?getString@Formattable@icu_4_0@@QBEABVUnicodeString@2@XZ
?getStringList@CollData@icu_4_0@@QBEPBVStringList@2@H@Z ; has WINAPI (@4)
?getSunLongitude@CalendarAstronomer@icu_4_0@@QAENXZ
?getSunLongitude@CalendarAstronomer@icu_4_0@@QAEXNAAN0@Z ; has WINAPI (@16)
?getSunPosition@CalendarAstronomer@icu_4_0@@QAEAAVEquatorial@12@AAV312@@Z ; has WINAPI (@4)
?getSunRiseSet@CalendarAstronomer@icu_4_0@@QAENC@Z ; has WINAPI (@4)
?getSunTime@CalendarAstronomer@icu_4_0@@QAENNC@Z ; has WINAPI (@12)
?getSupportedIDs@SimpleNumberFormatFactory@icu_4_0@@UBEPBVUnicodeString@2@AAHAAW4UErrorCode@@@Z ; has WINAPI (@8)
?getSymbol@DecimalFormatSymbols@icu_4_0@@QBE?AVUnicodeString@2@W4ENumberFormatSymbol@12@@Z ; has WINAPI (@8)
?getTZDataVersion@TimeZone@icu_4_0@@SAPBDAAW4UErrorCode@@@Z
?getTZURL@VTimeZone@icu_4_0@@QBECAAVUnicodeString@2@@Z ; has WINAPI (@4)
?getTailoredSet@Collator@icu_4_0@@UBEPAVUnicodeSet@2@AAW4UErrorCode@@@Z ; has WINAPI (@4)
?getTailoredSet@RuleBasedCollator@icu_4_0@@UBEPAVUnicodeSet@2@AAW4UErrorCode@@@Z ; has WINAPI (@4)
?getTargetSet@CompoundTransliterator@icu_4_0@@UBEAAVUnicodeSet@2@AAV32@@Z ; has WINAPI (@4)
?getTargetSet@Transliterator@icu_4_0@@UBEAAVUnicodeSet@2@AAV32@@Z ; has WINAPI (@4)
?getText@SearchIterator@icu_4_0@@QBEABVUnicodeString@2@XZ
?getTime@Calendar@icu_4_0@@QBENAAW4UErrorCode@@@Z ; has WINAPI (@4)
?getTime@CalendarAstronomer@icu_4_0@@QAENXZ
?getTime@TimeZoneTransition@icu_4_0@@QBENXZ
?getTimeInMillis@Calendar@icu_4_0@@IBENAAW4UErrorCode@@@Z ; has WINAPI (@4)
?getTimeLimit@RegexMatcher@icu_4_0@@UBEHXZ
?getTimeRuleType@DateTimeRule@icu_4_0@@QBE?AW4TimeRuleType@12@XZ
?getTimeType@TimeArrayTimeZoneRule@icu_4_0@@QBE?AW4TimeRuleType@DateTimeRule@2@XZ
?getTimeZone@Calendar@icu_4_0@@QBEABVTimeZone@2@XZ
?getTimeZone@DateFormat@icu_4_0@@UBEABVTimeZone@2@XZ
?getTimeZoneRules@RuleBasedTimeZone@icu_4_0@@UAEXAAPBVInitialTimeZoneRule@2@QAPBVTimeZoneRule@2@AAHAAW4UErrorCode@@@Z ; has WINAPI (@16)
?getTimeZoneRules@SimpleTimeZone@icu_4_0@@UAEXAAPBVInitialTimeZoneRule@2@QAPBVTimeZoneRule@2@AAHAAW4UErrorCode@@@Z ; has WINAPI (@16)
?getTimeZoneRules@VTimeZone@icu_4_0@@UAEXAAPBVInitialTimeZoneRule@2@QAPBVTimeZoneRule@2@AAHAAW4UErrorCode@@@Z ; Check!!! Couldn't determine function argument count. Function doesn't return. 
?getTimeZoneRulesAfter@BasicTimeZone@icu_4_0@@IAEXNAAPAVInitialTimeZoneRule@2@AAPAVUVector@2@AAW4UErrorCode@@@Z ; has WINAPI (@20)
?getTo@TimeZoneTransition@icu_4_0@@QBEPBVTimeZoneRule@2@XZ
?getTopBitNumber@DateTimePatternGenerator@icu_4_0@@AAEHH@Z ; has WINAPI (@4)
?getTransitionTime@RuleBasedTimeZone@icu_4_0@@ABENPAUTransition@2@CHH@Z ; has WINAPI (@16)
?getTransliterator@CompoundTransliterator@icu_4_0@@UBEABVTransliterator@2@H@Z ; has WINAPI (@4)
?getType@Formattable@icu_4_0@@QBE?AW4Type@12@XZ
?getType@GregorianCalendar@icu_4_0@@UBEPBDXZ
?getUCollationStrength@RuleBasedCollator@icu_4_0@@ABE?AW4UColAttributeValue@@ABW4ECollationStrength@Collator@2@@Z ; has WINAPI (@4)
?getUCollator@RuleBasedCollator@icu_4_0@@QAEPBUUCollator@@XZ
?getUTC@TimeArrayTimeZoneRule@icu_4_0@@ABENNHH@Z ; has WINAPI (@16)
?getUnit@Measure@icu_4_0@@QBEABVMeasureUnit@2@XZ
?getVariableTop@RuleBasedCollator@icu_4_0@@UBEIAAW4UErrorCode@@@Z ; has WINAPI (@4)
?getVersion@RuleBasedCollator@icu_4_0@@UBEXQAE@Z ; has WINAPI (@4)
?getWeekdays@DateFormatSymbols@icu_4_0@@QBEPBVUnicodeString@2@AAH@Z ; has WINAPI (@4)
?getWeekdays@DateFormatSymbols@icu_4_0@@QBEPBVUnicodeString@2@AAHW4DtContextType@12@W4DtWidthType@12@@Z ; has WINAPI (@12)
?getZoneIdByMetazone@ZoneMeta@icu_4_0@@SAAAVUnicodeString@2@ABV32@0AAV32@@Z
?getZoneStringFormat@DateFormatSymbols@icu_4_0@@ABEPBVZoneStringFormat@2@XZ
?getZoneStrings@DateFormatSymbols@icu_4_0@@QBEPAPBVUnicodeString@2@AAH0@Z ; has WINAPI (@8)
?greater@Collator@icu_4_0@@QBECABVUnicodeString@2@0@Z ; has WINAPI (@8)
?greaterOrEqual@Collator@icu_4_0@@QBECABVUnicodeString@2@0@Z ; has WINAPI (@8)
?group@RegexMatcher@icu_4_0@@UBE?AVUnicodeString@2@AAW4UErrorCode@@@Z ; has WINAPI (@8)
?group@RegexMatcher@icu_4_0@@UBE?AVUnicodeString@2@HAAW4UErrorCode@@@Z ; has WINAPI (@12)
?groupCount@RegexMatcher@icu_4_0@@UBEHXZ
?hackTimes@DateTimePatternGenerator@icu_4_0@@AAEXABVUnicodeString@2@AAW4UErrorCode@@@Z ; has WINAPI (@8)
?handleComputeFields@Calendar@icu_4_0@@MAEXHAAW4UErrorCode@@@Z ; has WINAPI (@8)
?handleComputeFields@GregorianCalendar@icu_4_0@@MAEXHAAW4UErrorCode@@@Z ; has WINAPI (@8)
?handleComputeJulianDay@Calendar@icu_4_0@@MAEHW4UCalendarDateFields@@@Z ; has WINAPI (@4)
?handleComputeJulianDay@GregorianCalendar@icu_4_0@@MAEHW4UCalendarDateFields@@@Z ; has WINAPI (@4)
?handleComputeMonthStart@CECalendar@icu_4_0@@MBEHHHC@Z ; has WINAPI (@12)
?handleComputeMonthStart@GregorianCalendar@icu_4_0@@MBEHHHC@Z ; has WINAPI (@12)
?handleGetExtendedYear@GregorianCalendar@icu_4_0@@MAEHXZ
?handleGetExtendedYearFromWeekFields@Calendar@icu_4_0@@MAEHHH@Z ; has WINAPI (@8)
?handleGetExtendedYearFromWeekFields@GregorianCalendar@icu_4_0@@MAEHHH@Z ; has WINAPI (@8)
?handleGetLimit@CECalendar@icu_4_0@@MBEHW4UCalendarDateFields@@W4ELimitType@Calendar@2@@Z ; has WINAPI (@8)
?handleGetLimit@GregorianCalendar@icu_4_0@@MBEHW4UCalendarDateFields@@W4ELimitType@Calendar@2@@Z ; has WINAPI (@8)
?handleGetMonthLength@Calendar@icu_4_0@@MBEHHH@Z ; has WINAPI (@8)
?handleGetMonthLength@GregorianCalendar@icu_4_0@@MBEHHH@Z ; has WINAPI (@8)
?handleGetSourceSet@CompoundTransliterator@icu_4_0@@MBEXAAVUnicodeSet@2@@Z ; has WINAPI (@4)
?handleGetSourceSet@Transliterator@icu_4_0@@UBEXAAVUnicodeSet@2@@Z ; has WINAPI (@4)
?handleGetYearLength@Calendar@icu_4_0@@MBEHH@Z ; has WINAPI (@4)
?handleGetYearLength@GregorianCalendar@icu_4_0@@MBEHH@Z ; has WINAPI (@4)
?handleNext@StringSearch@icu_4_0@@MAEHHAAW4UErrorCode@@@Z ; has WINAPI (@8)
?handlePrev@StringSearch@icu_4_0@@MAEHHAAW4UErrorCode@@@Z ; has WINAPI (@8)
?handleTransliterate@CompoundTransliterator@icu_4_0@@MBEXAAVReplaceable@2@AAUUTransPosition@@C@Z ; has WINAPI (@12)
?hasAnchoringBounds@RegexMatcher@icu_4_0@@UBECXZ
?hasEquivalentTransitions@BasicTimeZone@icu_4_0@@UAECAAV12@NNCAAW4UErrorCode@@@Z ; has WINAPI (@28)
?hasSameRules@RuleBasedTimeZone@icu_4_0@@UBECABVTimeZone@2@@Z ; has WINAPI (@4)
?hasSameRules@SimpleTimeZone@icu_4_0@@UBECABVTimeZone@2@@Z ; has WINAPI (@4)
?hasSameRules@TimeZone@icu_4_0@@UBECABV12@@Z ; has WINAPI (@4)
?hasSameRules@VTimeZone@icu_4_0@@UBECABVTimeZone@2@@Z ; Check!!! Couldn't determine function argument count. Function doesn't return. 
?hasTransparentBounds@RegexMatcher@icu_4_0@@UBECXZ
?hashCode@CollationKey@icu_4_0@@QBEHXZ
?hashCode@RuleBasedCollator@icu_4_0@@UBEHXZ
?haveDefaultCentury@CECalendar@icu_4_0@@MBECXZ
?haveDefaultCentury@GregorianCalendar@icu_4_0@@UBECXZ
?hitEnd@RegexMatcher@icu_4_0@@UBECXZ
?inDaylightTime@CECalendar@icu_4_0@@MBECAAW4UErrorCode@@@Z ; has WINAPI (@4)
?inDaylightTime@GregorianCalendar@icu_4_0@@UBECAAW4UErrorCode@@@Z ; has WINAPI (@4)
?inDaylightTime@RuleBasedTimeZone@icu_4_0@@UBECNAAW4UErrorCode@@@Z ; has WINAPI (@12)
?inDaylightTime@SimpleTimeZone@icu_4_0@@UBECNAAW4UErrorCode@@@Z ; has WINAPI (@12)
?inDaylightTime@VTimeZone@icu_4_0@@UBECNAAW4UErrorCode@@@Z ; has WINAPI (@12)
?inRange@PluralFormat@icu_4_0@@AAEC_WAAW4fmtToken@12@@Z ; has WINAPI (@8)
?init2@RegexMatcher@icu_4_0@@AAEXABVUnicodeString@2@AAW4UErrorCode@@@Z ; has WINAPI (@8)
?init@CompoundTransliterator@icu_4_0@@AAEXAAVUVector@2@W4UTransDirection@@CAAW4UErrorCode@@@Z ; has WINAPI (@16)
?init@CompoundTransliterator@icu_4_0@@AAEXABVUnicodeString@2@W4UTransDirection@@CAAW4UErrorCode@@@Z ; has WINAPI (@16)
?init@PluralFormat@icu_4_0@@AAEXPBVPluralRules@2@ABVLocale@2@AAW4UErrorCode@@@Z ; has WINAPI (@12)
?init@RegexMatcher@icu_4_0@@AAEXAAW4UErrorCode@@@Z ; has WINAPI (@4)
?init@RegexPattern@icu_4_0@@AAEXXZ
?init@RuleBasedNumberFormat@icu_4_0@@AAEXABVUnicodeString@2@PAVLocalizationInfo@2@AAUUParseError@@AAW4UErrorCode@@@Z ; has WINAPI (@16)
?initData@DateTimePatternGenerator@icu_4_0@@AAEXABVLocale@2@AAW4UErrorCode@@@Z ; has WINAPI (@8)
?initDefault@TimeZone@icu_4_0@@CAXXZ
?initDefaultRuleSet@RuleBasedNumberFormat@icu_4_0@@AAEXXZ
?initGMTFormatters@SimpleDateFormat@icu_4_0@@AAEXAAW4UErrorCode@@@Z ; has WINAPI (@4)
?initHash@DateIntervalInfo@icu_4_0@@AAEPAVHashtable@2@AAW4UErrorCode@@@Z ; has WINAPI (@4)
?initHashtable@DateTimePatternGenerator@icu_4_0@@AAEXAAW4UErrorCode@@@Z ; has WINAPI (@4)
?initStartTimes@TimeArrayTimeZoneRule@icu_4_0@@AAECQBNHAAW4UErrorCode@@@Z ; has WINAPI (@12)
?initTransitionRules@SimpleTimeZone@icu_4_0@@AAEXAAW4UErrorCode@@@Z ; has WINAPI (@4)
?initZoneStringFormat@DateFormatSymbols@icu_4_0@@AAEXXZ
?initZoneStringsArray@DateFormatSymbols@icu_4_0@@AAEXXZ
?initialize@DecimalFormatSymbols@icu_4_0@@AAEXABVLocale@2@AAW4UErrorCode@@C@Z ; has WINAPI (@12)
?initialize@DecimalFormatSymbols@icu_4_0@@AAEXPAPB_WPAHH@Z ; has WINAPI (@12)
?initialize@DecimalFormatSymbols@icu_4_0@@AAEXXZ
?initialize@SimpleDateFormat@icu_4_0@@AAEXABVLocale@2@AAW4UErrorCode@@@Z ; has WINAPI (@8)
?initialize@ZoneMeta@icu_4_0@@CAXXZ
?initializeCalendar@SimpleDateFormat@icu_4_0@@AAEPAVCalendar@2@PAVTimeZone@2@ABVLocale@2@AAW4UErrorCode@@@Z ; has WINAPI (@12)
?initializeData@DateFormatSymbols@icu_4_0@@AAEXABVLocale@2@PBDAAW4UErrorCode@@C@Z ; has WINAPI (@16)
?initializeData@DateIntervalInfo@icu_4_0@@AAEXABVLocale@2@AAW4UErrorCode@@@Z ; has WINAPI (@8)
?initializeDefaultCentury@SimpleDateFormat@icu_4_0@@AAEXXZ
?initializePattern@DateIntervalFormat@icu_4_0@@AAEXAAW4UErrorCode@@@Z ; has WINAPI (@4)
?initializeRegistry@Transliterator@icu_4_0@@CACAAW4UErrorCode@@@Z
?initializeSymbols@SimpleDateFormat@icu_4_0@@AAEXABVLocale@2@PAVCalendar@2@AAW4UErrorCode@@@Z ; has WINAPI (@12)
?initializeSystemDefaultCentury@GregorianCalendar@icu_4_0@@CAXXZ
?input@RegexMatcher@icu_4_0@@UBEABVUnicodeString@2@XZ
?insertFormattedNumber@PluralFormat@icu_4_0@@ABE?AVUnicodeString@2@NAAV32@0AAVFieldPosition@2@@Z ; has WINAPI (@24)
?integerToken@Transliterator@icu_4_0@@SA?ATToken@12@H@Z
?internalGet@Calendar@icu_4_0@@IBEHW4EDateFields@12@@Z ; has WINAPI (@4)
?internalGet@Calendar@icu_4_0@@IBEHW4UCalendarDateFields@@@Z ; has WINAPI (@4)
?internalGet@Calendar@icu_4_0@@IBEHW4UCalendarDateFields@@H@Z ; has WINAPI (@8)
?internalGetDefaultCenturyStart@GregorianCalendar@icu_4_0@@ABENXZ
?internalGetDefaultCenturyStartYear@GregorianCalendar@icu_4_0@@ABEHXZ
?internalGetEra@GregorianCalendar@icu_4_0@@MBEHXZ
?internalGetTime@Calendar@icu_4_0@@IBENXZ
?internalSet@Calendar@icu_4_0@@IAEXW4EDateFields@12@H@Z ; has WINAPI (@8)
?internalSet@Calendar@icu_4_0@@IAEXW4UCalendarDateFields@@H@Z ; has WINAPI (@8)
?internalSetTime@Calendar@icu_4_0@@IAEXN@Z ; has WINAPI (@8)
?isAvailableFormatSet@DateTimePatternGenerator@icu_4_0@@ABECABVUnicodeString@2@@Z ; has WINAPI (@4)
?isBogus@CollationKey@icu_4_0@@QBECXZ
?isCanonicalItem@DateTimePatternGenerator@icu_4_0@@ABECABVUnicodeString@2@@Z ; has WINAPI (@4)
?isDecimalSeparatorAlwaysShown@DecimalFormat@icu_4_0@@QBECXZ
?isDefaultGMTFormat@SimpleDateFormat@icu_4_0@@ABECXZ
?isEquivalentTo@AnnualTimeZoneRule@icu_4_0@@UBECABVTimeZoneRule@2@@Z ; has WINAPI (@4)
?isEquivalentTo@Calendar@icu_4_0@@UBECABV12@@Z ; has WINAPI (@4)
?isEquivalentTo@GregorianCalendar@icu_4_0@@UBECABVCalendar@2@@Z ; has WINAPI (@4)
?isEquivalentTo@InitialTimeZoneRule@icu_4_0@@UBECABVTimeZoneRule@2@@Z ; has WINAPI (@4)
?isEquivalentTo@TimeArrayTimeZoneRule@icu_4_0@@UBECABVTimeZoneRule@2@@Z ; has WINAPI (@4)
?isEquivalentTo@TimeZoneRule@icu_4_0@@UBECABV12@@Z ; has WINAPI (@4)
?isExponentSignAlwaysShown@DecimalFormat@icu_4_0@@UAECXZ
?isFieldUnitIgnored@SimpleDateFormat@icu_4_0@@QBECW4UCalendarDateFields@@@Z ; has WINAPI (@4)
?isFieldUnitIgnored@SimpleDateFormat@icu_4_0@@SACABVUnicodeString@2@W4UCalendarDateFields@@@Z
?isGroupingPosition@DecimalFormat@icu_4_0@@ABECH@Z ; has WINAPI (@4)
?isGroupingUsed@NumberFormat@icu_4_0@@QBECXZ
?isIgnorable@CollationElementIterator@icu_4_0@@SACH@Z
?isKeyword@PluralRules@icu_4_0@@QBECABVUnicodeString@2@@Z ; has WINAPI (@4)
?isLeapYear@GregorianCalendar@icu_4_0@@QBECH@Z ; has WINAPI (@4)
?isLegalArgName@MessageFormat@icu_4_0@@ABECABVUnicodeString@2@@Z ; has WINAPI (@4)
?isLenient@Calendar@icu_4_0@@QBECXZ
?isLenient@DateFormat@icu_4_0@@UBECXZ
?isLenient@RuleBasedNumberFormat@icu_4_0@@UBECXZ
?isNumeric@Formattable@icu_4_0@@QBECXZ
?isNumeric@SimpleDateFormat@icu_4_0@@CAC_WH@Z
?isParseIntegerOnly@NumberFormat@icu_4_0@@QBECXZ
?isScientificNotation@DecimalFormat@icu_4_0@@UAECXZ
?isSet@Calendar@icu_4_0@@QBECW4UCalendarDateFields@@@Z ; has WINAPI (@4)
?isUWordBoundary@RegexMatcher@icu_4_0@@AAECH@Z ; has WINAPI (@4)
?isWordBoundary@RegexMatcher@icu_4_0@@AAECH@Z ; has WINAPI (@4)
?jdToCE@CECalendar@icu_4_0@@KAXHHAAH00@Z
?joinIDs@CompoundTransliterator@icu_4_0@@AAE?AVUnicodeString@2@QBQAVTransliterator@2@H@Z ; has WINAPI (@12)
?julianDayToDayOfWeek@Calendar@icu_4_0@@KAEN@Z
?julianDayToMillis@GregorianCalendar@icu_4_0@@CANN@Z
?kDOWPrecedence@Calendar@icu_4_0@@1QAY1M@7$$CBHA DATA
?kDatePrecedence@Calendar@icu_4_0@@1QAY1M@7$$CBHA DATA
?kDoubleFractionDigits@DecimalFormat@icu_4_0@@1HB DATA
?kDoubleIntegerDigits@DecimalFormat@icu_4_0@@1HB DATA
?kMaxScientificIntegerDigits@DecimalFormat@icu_4_0@@1HB DATA
?kYearPrecedence@Calendar@icu_4_0@@1QAY1M@7$$CBHA DATA
?last@SearchIterator@icu_4_0@@QAEHAAW4UErrorCode@@@Z ; has WINAPI (@4)
?load@VTimeZone@icu_4_0@@AAEXAAVVTZReader@2@AAW4UErrorCode@@@Z ; has WINAPI (@8)
?loadRule@TimeZone@icu_4_0@@KAPAUUResourceBundle@@PBU3@ABVUnicodeString@2@PAU3@AAW4UErrorCode@@@Z
?lookingAt@RegexMatcher@icu_4_0@@UAECAAW4UErrorCode@@@Z ; has WINAPI (@4)
?lookingAt@RegexMatcher@icu_4_0@@UAECHAAW4UErrorCode@@@Z ; has WINAPI (@8)
?lstToUT@CalendarAstronomer@icu_4_0@@QAENN@Z ; has WINAPI (@8)
?makeFormat@MessageFormat@icu_4_0@@AAEXHPAVUnicodeString@2@AAUUParseError@@AAW4UErrorCode@@@Z ; has WINAPI (@16)
?makeInstance@Collator@icu_4_0@@CAPAV12@ABVLocale@2@AAW4UErrorCode@@@Z
?makeInstance@NumberFormat@icu_4_0@@CAPAV12@ABVLocale@2@W4EStyles@12@AAW4UErrorCode@@@Z
?match@DecimalFormat@icu_4_0@@CAHABVUnicodeString@2@H0@Z
?match@DecimalFormat@icu_4_0@@CAHABVUnicodeString@2@HH@Z
?matchQuarterString@SimpleDateFormat@icu_4_0@@ABEHABVUnicodeString@2@HW4UCalendarDateFields@@PBV32@HAAVCalendar@2@@Z ; has WINAPI (@24)
?matchString@SimpleDateFormat@icu_4_0@@ABEHABVUnicodeString@2@HW4UCalendarDateFields@@PBV32@HAAVCalendar@2@@Z ; has WINAPI (@24)
?matcher@RegexPattern@icu_4_0@@UBEPAVRegexMatcher@2@AAW4UErrorCode@@@Z ; has WINAPI (@4)
?matcher@RegexPattern@icu_4_0@@UBEPAVRegexMatcher@2@ABVUnicodeString@2@AAW4UErrorCode@@@Z ; has WINAPI (@8)
?matches@RegexMatcher@icu_4_0@@UAECAAW4UErrorCode@@@Z ; has WINAPI (@4)
?matches@RegexMatcher@icu_4_0@@UAECHAAW4UErrorCode@@@Z ; has WINAPI (@8)
?matches@RegexPattern@icu_4_0@@SACABVUnicodeString@2@0AAUUParseError@@AAW4UErrorCode@@@Z
?matchesAt@CEList@icu_4_0@@QBECHPBV12@@Z ; has WINAPI (@8)
?millisToJulianDay@GregorianCalendar@icu_4_0@@CANN@Z
?minLengthInChars@CollData@icu_4_0@@QBEHPBVCEList@2@H@Z ; has WINAPI (@8)
?minLengthInChars@CollData@icu_4_0@@QBEHPBVCEList@2@HPAH@Z ; has WINAPI (@12)
?monthLength@GregorianCalendar@icu_4_0@@MBEHH@Z ; has WINAPI (@4)
?monthLength@GregorianCalendar@icu_4_0@@MBEHHH@Z ; has WINAPI (@8)
?newerField@Calendar@icu_4_0@@IBE?AW4UCalendarDateFields@@W43@0@Z ; has WINAPI (@8)
?newestStamp@Calendar@icu_4_0@@IBEHW4UCalendarDateFields@@0H@Z ; has WINAPI (@12)
?next@CollationElementIterator@icu_4_0@@QAEHAAW4UErrorCode@@@Z ; has WINAPI (@4)
?next@SearchIterator@icu_4_0@@QAEHAAW4UErrorCode@@@Z ; has WINAPI (@4)
?open@CollData@icu_4_0@@SAPAV12@PAUUCollator@@AAW4UErrorCode@@@Z
?orphanFilter@Transliterator@icu_4_0@@QAEPAVUnicodeFilter@2@XZ
?orphanTimeZone@Calendar@icu_4_0@@QAEPAVTimeZone@2@XZ
?parse@ChoiceFormat@icu_4_0@@UBEXABVUnicodeString@2@AAVFormattable@2@AAVParsePosition@2@@Z ; has WINAPI (@12)
?parse@ChoiceFormat@icu_4_0@@UBEXABVUnicodeString@2@AAVFormattable@2@AAW4UErrorCode@@@Z ; has WINAPI (@12)
?parse@DateFormat@icu_4_0@@QBENABVUnicodeString@2@AAVParsePosition@2@@Z ; has WINAPI (@8)
?parse@DateFormat@icu_4_0@@UBENABVUnicodeString@2@AAW4UErrorCode@@@Z ; has WINAPI (@8)
?parse@DecimalFormat@icu_4_0@@ABEXABVUnicodeString@2@AAVFormattable@2@AAVParsePosition@2@C@Z ; has WINAPI (@16)
?parse@DecimalFormat@icu_4_0@@UBEXABVUnicodeString@2@AAVFormattable@2@AAVParsePosition@2@@Z ; has WINAPI (@12)
?parse@DecimalFormat@icu_4_0@@UBEXABVUnicodeString@2@AAVFormattable@2@AAW4UErrorCode@@@Z ; has WINAPI (@12)
?parse@MessageFormat@icu_4_0@@UBEPAVFormattable@2@ABVUnicodeString@2@AAHAAW4UErrorCode@@@Z ; has WINAPI (@12)
?parse@MessageFormat@icu_4_0@@UBEPAVFormattable@2@ABVUnicodeString@2@AAVParsePosition@2@AAH@Z ; has WINAPI (@12)
?parse@NumberFormat@icu_4_0@@UBEXABVUnicodeString@2@AAVFormattable@2@AAW4UErrorCode@@@Z ; has WINAPI (@12)
?parse@RuleBasedNumberFormat@icu_4_0@@UBEXABVUnicodeString@2@AAVFormattable@2@AAVParsePosition@2@@Z ; has WINAPI (@12)
?parse@RuleBasedNumberFormat@icu_4_0@@UBEXABVUnicodeString@2@AAVFormattable@2@AAW4UErrorCode@@@Z ; has WINAPI (@12)
?parse@SimpleDateFormat@icu_4_0@@QBENABVUnicodeString@2@AAVParsePosition@2@@Z ; has WINAPI (@8)
?parse@SimpleDateFormat@icu_4_0@@UBENABVUnicodeString@2@AAW4UErrorCode@@@Z ; has WINAPI (@8)
?parse@SimpleDateFormat@icu_4_0@@UBEXABVUnicodeString@2@AAVCalendar@2@AAVParsePosition@2@@Z ; has WINAPI (@12)
?parse@VTimeZone@icu_4_0@@AAEXAAW4UErrorCode@@@Z ; has WINAPI (@4)
?parseAmbiguousDatesAsAfter@SimpleDateFormat@icu_4_0@@AAEXNAAW4UErrorCode@@@Z ; has WINAPI (@12)
?parseCurrency@DecimalFormat@icu_4_0@@UBEAAVFormattable@2@ABVUnicodeString@2@AAV32@AAVParsePosition@2@@Z ; has WINAPI (@12)
?parseCurrency@NumberFormat@icu_4_0@@UBEAAVFormattable@2@ABVUnicodeString@2@AAV32@AAVParsePosition@2@@Z ; has WINAPI (@12)
?parseCustomID@TimeZone@icu_4_0@@CACABVUnicodeString@2@AAH111@Z
?parseDescription@PluralRules@icu_4_0@@AAEXAAVUnicodeString@2@AAVRuleChain@2@AAW4UErrorCode@@@Z ; has WINAPI (@12)
?parseGMT@SimpleDateFormat@icu_4_0@@ABEHABVUnicodeString@2@AAVParsePosition@2@@Z ; has WINAPI (@8)
?parseGMTDefault@SimpleDateFormat@icu_4_0@@ABEHABVUnicodeString@2@AAVParsePosition@2@@Z ; has WINAPI (@8)
?parseInt@SimpleDateFormat@icu_4_0@@ABEXABVUnicodeString@2@AAVFormattable@2@AAVParsePosition@2@C@Z ; has WINAPI (@16)
?parseInt@SimpleDateFormat@icu_4_0@@ABEXABVUnicodeString@2@AAVFormattable@2@HAAVParsePosition@2@C@Z ; has WINAPI (@20)
?parseObject@DateFormat@icu_4_0@@UBEXABVUnicodeString@2@AAVFormattable@2@AAVParsePosition@2@@Z ; has WINAPI (@12)
?parseObject@DateIntervalFormat@icu_4_0@@UBEXABVUnicodeString@2@AAVFormattable@2@AAVParsePosition@2@@Z ; has WINAPI (@12)
?parseObject@Format@icu_4_0@@QBEXABVUnicodeString@2@AAVFormattable@2@AAW4UErrorCode@@@Z ; has WINAPI (@12)
?parseObject@MessageFormat@icu_4_0@@UBEXABVUnicodeString@2@AAVFormattable@2@AAVParsePosition@2@@Z ; has WINAPI (@12)
?parseObject@NumberFormat@icu_4_0@@UBEXABVUnicodeString@2@AAVFormattable@2@AAVParsePosition@2@@Z ; Check!!! Couldn't determine function argument count. Function doesn't return. 
?parseObject@PluralFormat@icu_4_0@@UBEXABVUnicodeString@2@AAVFormattable@2@AAVParsePosition@2@@Z ; has WINAPI (@12)
?parseSkeleton@DateIntervalInfo@icu_4_0@@CAXABVUnicodeString@2@PAH@Z
?pattern@RegexMatcher@icu_4_0@@UBEABVRegexPattern@2@XZ
?pattern@RegexPattern@icu_4_0@@UBE?AVUnicodeString@2@XZ ; has WINAPI (@4)
?pinDayOfMonth@GregorianCalendar@icu_4_0@@IAEXXZ
?pinField@Calendar@icu_4_0@@MAEXW4UCalendarDateFields@@AAW4UErrorCode@@@Z ; has WINAPI (@8)
?pointerToken@Transliterator@icu_4_0@@SA?ATToken@12@PAX@Z
?preceding@SearchIterator@icu_4_0@@QAEHHAAW4UErrorCode@@@Z ; has WINAPI (@8)
?precision@DecimalFormat@icu_4_0@@ABEHC@Z ; has WINAPI (@4)
?prepareGetActual@Calendar@icu_4_0@@MAEXW4UCalendarDateFields@@CAAW4UErrorCode@@@Z ; has WINAPI (@12)
?previous@CollationElementIterator@icu_4_0@@QAEHAAW4UErrorCode@@@Z ; has WINAPI (@4)
?previous@SearchIterator@icu_4_0@@QAEHAAW4UErrorCode@@@Z ; has WINAPI (@4)
?primaryOrder@CollationElementIterator@icu_4_0@@SAHH@Z
?region@RegexMatcher@icu_4_0@@UAEAAV12@HHAAW4UErrorCode@@@Z ; has WINAPI (@12)
?regionEnd@RegexMatcher@icu_4_0@@UBEHXZ
?regionStart@RegexMatcher@icu_4_0@@UBEHXZ
?registerAlias@Transliterator@icu_4_0@@SAXABVUnicodeString@2@0@Z
?registerFactory@Calendar@icu_4_0@@SAPBXPAVICUServiceFactory@2@AAW4UErrorCode@@@Z
?registerFactory@Collator@icu_4_0@@SAPBXPAVCollatorFactory@2@AAW4UErrorCode@@@Z
?registerFactory@NumberFormat@icu_4_0@@SAPBXPAVNumberFormatFactory@2@AAW4UErrorCode@@@Z
?registerFactory@Transliterator@icu_4_0@@SAXABVUnicodeString@2@P6APAV12@0TToken@12@@Z1@Z
?registerInstance@Collator@icu_4_0@@SAPBXPAV12@ABVLocale@2@AAW4UErrorCode@@@Z
?registerInstance@Transliterator@icu_4_0@@SAXPAV12@@Z
?replaceAll@RegexMatcher@icu_4_0@@UAE?AVUnicodeString@2@ABV32@AAW4UErrorCode@@@Z ; has WINAPI (@12)
?replaceFieldTypes@DateTimePatternGenerator@icu_4_0@@QAE?AVUnicodeString@2@ABV32@0AAW4UErrorCode@@@Z ; has WINAPI (@16)
?replaceFirst@RegexMatcher@icu_4_0@@UAE?AVUnicodeString@2@ABV32@AAW4UErrorCode@@@Z ; has WINAPI (@12)
?requireEnd@RegexMatcher@icu_4_0@@UBECXZ
?reset@CollationElementIterator@icu_4_0@@QAEXXZ
?reset@CollationKey@icu_4_0@@AAEAAV12@XZ
?reset@RegexMatcher@icu_4_0@@UAEAAV12@ABVUnicodeString@2@@Z ; has WINAPI (@4)
?reset@RegexMatcher@icu_4_0@@UAEAAV12@HAAW4UErrorCode@@@Z ; has WINAPI (@8)
?reset@RegexMatcher@icu_4_0@@UAEAAV12@XZ
?reset@SearchIterator@icu_4_0@@UAEXXZ
?reset@StringSearch@icu_4_0@@UAEXXZ
?resetPreserveRegion@RegexMatcher@icu_4_0@@QAEXXZ
?resetStack@RegexMatcher@icu_4_0@@AAEPAUREStackFrame@2@XZ
?resolveFields@Calendar@icu_4_0@@IAE?AW4UCalendarDateFields@@PAY1M@7$$CBH@Z ; has WINAPI (@4)
?riseOrSet@CalendarAstronomer@icu_4_0@@QAENAAVCoordFunc@12@CNNN@Z ; has WINAPI (@32)
?roll@Calendar@icu_4_0@@QAEXW4EDateFields@12@CAAW4UErrorCode@@@Z ; Check!!! Couldn't determine function argument count. Function doesn't return. 
?roll@Calendar@icu_4_0@@QAEXW4UCalendarDateFields@@CAAW4UErrorCode@@@Z ; Check!!! Couldn't determine function argument count. Function doesn't return. 
?roll@Calendar@icu_4_0@@UAEXW4EDateFields@12@HAAW4UErrorCode@@@Z ; Check!!! Couldn't determine function argument count. Function doesn't return. 
?roll@Calendar@icu_4_0@@UAEXW4UCalendarDateFields@@HAAW4UErrorCode@@@Z ; has WINAPI (@12)
?roll@GregorianCalendar@icu_4_0@@UAEXW4EDateFields@Calendar@2@HAAW4UErrorCode@@@Z ; Check!!! Couldn't determine function argument count. Function doesn't return. 
?roll@GregorianCalendar@icu_4_0@@UAEXW4UCalendarDateFields@@HAAW4UErrorCode@@@Z ; has WINAPI (@12)
?round@DecimalFormat@icu_4_0@@CANNW4ERoundingMode@12@C@Z
?safeClone@RuleBasedCollator@icu_4_0@@UAEPAVCollator@2@XZ
?safeClone@StringSearch@icu_4_0@@UBEPAVSearchIterator@2@XZ
?search@BoyerMooreSearch@icu_4_0@@QAECHAAH0@Z ; has WINAPI (@12)
?secondaryOrder@CollationElementIterator@icu_4_0@@SAHH@Z
?select@PluralRules@icu_4_0@@QBE?AVUnicodeString@2@H@Z ; has WINAPI (@8)
?select@PluralRules@icu_4_0@@QBE?AVUnicodeString@2@N@Z ; has WINAPI (@12)
?set2DigitYearStart@SimpleDateFormat@icu_4_0@@UAEXNAAW4UErrorCode@@@Z ; has WINAPI (@12)
?set@Calendar@icu_4_0@@QAEXHHH@Z ; has WINAPI (@12)
?set@Calendar@icu_4_0@@QAEXHHHHH@Z ; has WINAPI (@20)
?set@Calendar@icu_4_0@@QAEXHHHHHH@Z ; has WINAPI (@24)
?set@Calendar@icu_4_0@@QAEXW4UCalendarDateFields@@H@Z ; has WINAPI (@8)
?set@Ecliptic@CalendarAstronomer@icu_4_0@@QAEXNN@Z ; has WINAPI (@16)
?set@Equatorial@CalendarAstronomer@icu_4_0@@QAEXNN@Z ; has WINAPI (@16)
?set@Horizon@CalendarAstronomer@icu_4_0@@QAEXNN@Z ; has WINAPI (@16)
?set@MoonAge@CalendarAstronomer@icu_4_0@@QAEXN@Z ; has WINAPI (@8)
?setAmPmStrings@DateFormatSymbols@icu_4_0@@QAEXPBVUnicodeString@2@H@Z ; has WINAPI (@8)
?setAppendItemFormat@DateTimePatternGenerator@icu_4_0@@QAEXW4UDateTimePatternField@@ABVUnicodeString@2@@Z ; has WINAPI (@8)
?setAppendItemName@DateTimePatternGenerator@icu_4_0@@QAEXW4UDateTimePatternField@@ABVUnicodeString@2@@Z ; has WINAPI (@8)
?setArray@Formattable@icu_4_0@@QAEXPBV12@H@Z ; has WINAPI (@8)
?setAttribute@RuleBasedCollator@icu_4_0@@UAEXW4UColAttribute@@W4UColAttributeValue@@AAW4UErrorCode@@@Z ; has WINAPI (@12)
?setAttribute@SearchIterator@icu_4_0@@QAEXW4USearchAttribute@@W4USearchAttributeValue@@AAW4UErrorCode@@@Z ; has WINAPI (@12)
?setAvailableFormat@DateTimePatternGenerator@icu_4_0@@AAEXABVUnicodeString@2@AAW4UErrorCode@@@Z ; has WINAPI (@8)
?setBeginIndex@FieldPosition@icu_4_0@@QAEXH@Z ; has WINAPI (@4)
?setBreakIterator@SearchIterator@icu_4_0@@QAEXPAVBreakIterator@2@AAW4UErrorCode@@@Z ; has WINAPI (@8)
?setCalendar@DateFormat@icu_4_0@@UAEXABVCalendar@2@@Z ; has WINAPI (@4)
?setChoices@ChoiceFormat@icu_4_0@@UAEXPBNPBCPBVUnicodeString@2@H@Z ; has WINAPI (@16)
?setChoices@ChoiceFormat@icu_4_0@@UAEXPBNPBVUnicodeString@2@H@Z ; has WINAPI (@12)
?setCollator@StringSearch@icu_4_0@@QAEXPAVRuleBasedCollator@2@AAW4UErrorCode@@@Z ; has WINAPI (@8)
?setCurrency@DecimalFormat@icu_4_0@@UAEXPB_W@Z ; has WINAPI (@4)
?setCurrency@DecimalFormat@icu_4_0@@UAEXPB_WAAW4UErrorCode@@@Z ; has WINAPI (@8)
?setCurrency@NumberFormat@icu_4_0@@UAEXPB_WAAW4UErrorCode@@@Z ; has WINAPI (@8)
?setCurrencyForSymbols@DecimalFormat@icu_4_0@@AAEXXZ
?setDSTSavings@SimpleTimeZone@icu_4_0@@QAEXHAAW4UErrorCode@@@Z ; has WINAPI (@8)
?setDate@CalendarAstronomer@icu_4_0@@QAEXN@Z ; has WINAPI (@8)
?setDate@Formattable@icu_4_0@@QAEXN@Z ; has WINAPI (@8)
?setDateFormatSymbols@SimpleDateFormat@icu_4_0@@UAEXABVDateFormatSymbols@2@@Z ; has WINAPI (@4)
?setDateIntervalInfo@DateIntervalFormat@icu_4_0@@QAEXABVDateIntervalInfo@2@AAW4UErrorCode@@@Z ; has WINAPI (@8)
?setDateTimeFormat@DateTimePatternGenerator@icu_4_0@@QAEXABVUnicodeString@2@@Z ; has WINAPI (@4)
?setDateTimeFromCalendar@DateTimePatternGenerator@icu_4_0@@AAEXABVLocale@2@AAW4UErrorCode@@@Z ; has WINAPI (@8)
?setDecimal@DateTimePatternGenerator@icu_4_0@@QAEXABVUnicodeString@2@@Z ; has WINAPI (@4)
?setDecimalFormatSymbols@DecimalFormat@icu_4_0@@UAEXABVDecimalFormatSymbols@2@@Z ; has WINAPI (@4)
?setDecimalSeparatorAlwaysShown@DecimalFormat@icu_4_0@@UAEXC@Z ; has WINAPI (@4)
?setDecimalSymbols@DateTimePatternGenerator@icu_4_0@@AAEXABVLocale@2@AAW4UErrorCode@@@Z ; has WINAPI (@8)
?setDefault@TimeZone@icu_4_0@@SAXABV12@@Z
?setDefaultRuleSet@RuleBasedNumberFormat@icu_4_0@@UAEXABVUnicodeString@2@AAW4UErrorCode@@@Z ; has WINAPI (@8)
?setDouble@Formattable@icu_4_0@@QAEXN@Z ; has WINAPI (@8)
?setEndIndex@FieldPosition@icu_4_0@@QAEXH@Z ; has WINAPI (@4)
?setEndRule@SimpleTimeZone@icu_4_0@@QAEXHHHAAW4UErrorCode@@@Z ; has WINAPI (@16)
?setEndRule@SimpleTimeZone@icu_4_0@@QAEXHHHHAAW4UErrorCode@@@Z ; has WINAPI (@20)
?setEndRule@SimpleTimeZone@icu_4_0@@QAEXHHHHCAAW4UErrorCode@@@Z ; has WINAPI (@24)
?setEndRule@SimpleTimeZone@icu_4_0@@QAEXHHHHW4TimeMode@12@AAW4UErrorCode@@@Z ; has WINAPI (@24)
?setEndRule@SimpleTimeZone@icu_4_0@@QAEXHHHHW4TimeMode@12@CAAW4UErrorCode@@@Z ; has WINAPI (@28)
?setEndRule@SimpleTimeZone@icu_4_0@@QAEXHHHW4TimeMode@12@AAW4UErrorCode@@@Z ; has WINAPI (@20)
?setEraNames@DateFormatSymbols@icu_4_0@@QAEXPBVUnicodeString@2@H@Z ; has WINAPI (@8)
?setEras@DateFormatSymbols@icu_4_0@@QAEXPBVUnicodeString@2@H@Z ; has WINAPI (@8)
?setExponentSignAlwaysShown@DecimalFormat@icu_4_0@@UAEXC@Z ; has WINAPI (@4)
?setFallbackIntervalPattern@DateIntervalInfo@icu_4_0@@QAEXABVUnicodeString@2@AAW4UErrorCode@@@Z ; has WINAPI (@8)
?setFallbackPattern@DateIntervalFormat@icu_4_0@@AAEXW4UCalendarDateFields@@ABVUnicodeString@2@PAVDateTimePatternGenerator@2@AAW4UErrorCode@@@Z ; has WINAPI (@16)
?setField@FieldPosition@icu_4_0@@QAEXH@Z ; has WINAPI (@4)
?setFirstDayOfWeek@Calendar@icu_4_0@@QAEXW4UCalendarDaysOfWeek@@@Z ; has WINAPI (@4)
?setFormat@MessageFormat@icu_4_0@@UAEXABVUnicodeString@2@ABVFormat@2@AAW4UErrorCode@@@Z ; has WINAPI (@12)
?setFormat@MessageFormat@icu_4_0@@UAEXHABVFormat@2@@Z ; has WINAPI (@8)
?setFormatWidth@DecimalFormat@icu_4_0@@UAEXH@Z ; has WINAPI (@4)
?setFormats@MessageFormat@icu_4_0@@UAEXPAPBVFormat@2@H@Z ; has WINAPI (@8)
?setFrom@TimeZoneTransition@icu_4_0@@QAEXABVTimeZoneRule@2@@Z ; has WINAPI (@4)
?setGregorianChange@GregorianCalendar@icu_4_0@@QAEXNAAW4UErrorCode@@@Z ; has WINAPI (@12)
?setGroupingSize@DecimalFormat@icu_4_0@@UAEXH@Z ; has WINAPI (@4)
?setGroupingUsed@NumberFormat@icu_4_0@@UAEXC@Z ; has WINAPI (@4)
?setID@TimeZone@icu_4_0@@QAEXABVUnicodeString@2@@Z ; Check!!! forwards to ??4UnicodeString@icu_4_0@@QAEAAV01@ABV01@@Z in icuuc40.dll (ordinal 222)
?setID@Transliterator@icu_4_0@@IAEXABVUnicodeString@2@@Z ; has WINAPI (@4)
?setInt64@Formattable@icu_4_0@@QAEX_J@Z ; has WINAPI (@8)
?setIntervalPattern@DateIntervalFormat@icu_4_0@@AAECW4UCalendarDateFields@@PBVUnicodeString@2@1CPAV42@2@Z ; has WINAPI (@24)
?setIntervalPattern@DateIntervalFormat@icu_4_0@@AAEXW4UCalendarDateFields@@ABVUnicodeString@2@@Z ; has WINAPI (@8)
?setIntervalPattern@DateIntervalFormat@icu_4_0@@AAEXW4UCalendarDateFields@@ABVUnicodeString@2@C@Z ; has WINAPI (@12)
?setIntervalPattern@DateIntervalInfo@icu_4_0@@QAEXABVUnicodeString@2@W4UCalendarDateFields@@0AAW4UErrorCode@@@Z ; has WINAPI (@16)
?setIntervalPatternInternally@DateIntervalInfo@icu_4_0@@AAEXABVUnicodeString@2@W4UCalendarDateFields@@0AAW4UErrorCode@@@Z ; has WINAPI (@16)
?setJulianDay@CalendarAstronomer@icu_4_0@@QAEXN@Z ; has WINAPI (@8)
?setLastModified@VTimeZone@icu_4_0@@QAEXN@Z ; has WINAPI (@8)
?setLenient@Calendar@icu_4_0@@QAEXC@Z ; has WINAPI (@4)
?setLenient@DateFormat@icu_4_0@@UAEXC@Z ; has WINAPI (@4)
?setLenient@RuleBasedNumberFormat@icu_4_0@@UAEXC@Z ; has WINAPI (@4)
?setLocalPatternChars@DateFormatSymbols@icu_4_0@@QAEXABVUnicodeString@2@@Z ; Check!!! forwards to ??4UnicodeString@icu_4_0@@QAEAAV01@ABV01@@Z in icuuc40.dll (ordinal 222)
?setLocale@MessageFormat@icu_4_0@@UAEXABVLocale@2@@Z ; has WINAPI (@4)
?setLocale@PluralFormat@icu_4_0@@QAEXABVLocale@2@AAW4UErrorCode@@@Z ; has WINAPI (@8)
?setLocaleIDs@Format@icu_4_0@@IAEXPBD0@Z ; has WINAPI (@8)
?setLocales@Collator@icu_4_0@@MAEXABVLocale@2@00@Z ; has WINAPI (@12)
?setLocales@RuleBasedCollator@icu_4_0@@MAEXABVLocale@2@00@Z ; has WINAPI (@12)
?setLong@Formattable@icu_4_0@@QAEXH@Z ; has WINAPI (@4)
?setMatchCallback@RegexMatcher@icu_4_0@@UAEXP6ACPBXH@Z0AAW4UErrorCode@@@Z ; has WINAPI (@12)
?setMatchLength@SearchIterator@icu_4_0@@MAEXH@Z ; has WINAPI (@4)
?setMatchNotFound@SearchIterator@icu_4_0@@IAEXXZ
?setMatchStart@SearchIterator@icu_4_0@@MAEXH@Z ; has WINAPI (@4)
?setMaximumContextLength@Transliterator@icu_4_0@@IAEXH@Z ; has WINAPI (@4)
?setMaximumFractionDigits@DecimalFormat@icu_4_0@@UAEXH@Z ; has WINAPI (@4)
?setMaximumFractionDigits@NumberFormat@icu_4_0@@UAEXH@Z ; has WINAPI (@4)
?setMaximumIntegerDigits@DecimalFormat@icu_4_0@@UAEXH@Z ; has WINAPI (@4)
?setMaximumIntegerDigits@NumberFormat@icu_4_0@@UAEXH@Z ; has WINAPI (@4)
?setMaximumSignificantDigits@DecimalFormat@icu_4_0@@QAEXH@Z ; has WINAPI (@4)
?setMinimalDaysInFirstWeek@Calendar@icu_4_0@@QAEXE@Z ; has WINAPI (@4)
?setMinimumExponentDigits@DecimalFormat@icu_4_0@@UAEXC@Z ; has WINAPI (@4)
?setMinimumFractionDigits@DecimalFormat@icu_4_0@@UAEXH@Z ; has WINAPI (@4)
?setMinimumFractionDigits@NumberFormat@icu_4_0@@UAEXH@Z ; has WINAPI (@4)
?setMinimumIntegerDigits@DecimalFormat@icu_4_0@@UAEXH@Z ; has WINAPI (@4)
?setMinimumIntegerDigits@NumberFormat@icu_4_0@@UAEXH@Z ; has WINAPI (@4)
?setMinimumSignificantDigits@DecimalFormat@icu_4_0@@QAEXH@Z ; has WINAPI (@4)
?setMonths@DateFormatSymbols@icu_4_0@@QAEXPBVUnicodeString@2@H@Z ; has WINAPI (@8)
?setMonths@DateFormatSymbols@icu_4_0@@QAEXPBVUnicodeString@2@HW4DtContextType@12@W4DtWidthType@12@@Z ; has WINAPI (@16)
?setMultiplier@DecimalFormat@icu_4_0@@UAEXH@Z ; has WINAPI (@4)
?setNegativePrefix@DecimalFormat@icu_4_0@@UAEXABVUnicodeString@2@@Z ; has WINAPI (@4)
?setNegativeSuffix@DecimalFormat@icu_4_0@@UAEXABVUnicodeString@2@@Z ; has WINAPI (@4)
?setNumberFormat@DateFormat@icu_4_0@@UAEXABVNumberFormat@2@@Z ; has WINAPI (@4)
?setNumberFormat@PluralFormat@icu_4_0@@QAEXPBVNumberFormat@2@AAW4UErrorCode@@@Z ; has WINAPI (@8)
?setOffset@CollationElementIterator@icu_4_0@@QAEXHAAW4UErrorCode@@@Z ; has WINAPI (@8)
?setOffset@StringSearch@icu_4_0@@UAEXHAAW4UErrorCode@@@Z ; has WINAPI (@8)
?setPadCharacter@DecimalFormat@icu_4_0@@UAEXABVUnicodeString@2@@Z ; has WINAPI (@4)
?setPadPosition@DecimalFormat@icu_4_0@@UAEXW4EPadPosition@12@@Z ; has WINAPI (@4)
?setParseIntegerOnly@NumberFormat@icu_4_0@@UAEXC@Z ; has WINAPI (@4)
?setPattern@StringSearch@icu_4_0@@QAEXABVUnicodeString@2@AAW4UErrorCode@@@Z ; has WINAPI (@8)
?setPatternInfo@DateIntervalFormat@icu_4_0@@AAEXW4UCalendarDateFields@@PBVUnicodeString@2@1C@Z ; has WINAPI (@16)
?setPositivePrefix@DecimalFormat@icu_4_0@@UAEXABVUnicodeString@2@@Z ; has WINAPI (@4)
?setPositiveSuffix@DecimalFormat@icu_4_0@@UAEXABVUnicodeString@2@@Z ; has WINAPI (@4)
?setQuarters@DateFormatSymbols@icu_4_0@@QAEXPBVUnicodeString@2@HW4DtContextType@12@W4DtWidthType@12@@Z ; has WINAPI (@16)
?setRawOffset@RuleBasedTimeZone@icu_4_0@@UAEXH@Z ; has WINAPI (@4)
?setRawOffset@SimpleTimeZone@icu_4_0@@UAEXH@Z ; has WINAPI (@4)
?setRawOffset@VTimeZone@icu_4_0@@UAEXH@Z ; Check!!! Couldn't determine function argument count. Function doesn't return. 
?setRoundingIncrement@DecimalFormat@icu_4_0@@UAEXN@Z ; has WINAPI (@8)
?setRoundingMode@DecimalFormat@icu_4_0@@UAEXW4ERoundingMode@12@@Z ; has WINAPI (@4)
?setRuleStringFromCollator@RuleBasedCollator@icu_4_0@@AAEXXZ
?setScientificNotation@DecimalFormat@icu_4_0@@UAEXC@Z ; has WINAPI (@4)
?setSecondaryGroupingSize@DecimalFormat@icu_4_0@@UAEXH@Z ; has WINAPI (@4)
?setSeparateDateTimePtn@DateIntervalFormat@icu_4_0@@AAECABVUnicodeString@2@0@Z ; has WINAPI (@8)
?setShortMonths@DateFormatSymbols@icu_4_0@@QAEXPBVUnicodeString@2@H@Z ; has WINAPI (@8)
?setShortWeekdays@DateFormatSymbols@icu_4_0@@QAEXPBVUnicodeString@2@H@Z ; has WINAPI (@8)
?setSignificantDigitsUsed@DecimalFormat@icu_4_0@@QAEXC@Z ; has WINAPI (@4)
?setStackLimit@RegexMatcher@icu_4_0@@UAEXHAAW4UErrorCode@@@Z ; has WINAPI (@8)
?setStartRule@SimpleTimeZone@icu_4_0@@QAEXHHHAAW4UErrorCode@@@Z ; has WINAPI (@16)
?setStartRule@SimpleTimeZone@icu_4_0@@QAEXHHHHAAW4UErrorCode@@@Z ; has WINAPI (@20)
?setStartRule@SimpleTimeZone@icu_4_0@@QAEXHHHHCAAW4UErrorCode@@@Z ; has WINAPI (@24)
?setStartRule@SimpleTimeZone@icu_4_0@@QAEXHHHHW4TimeMode@12@AAW4UErrorCode@@@Z ; has WINAPI (@24)
?setStartRule@SimpleTimeZone@icu_4_0@@QAEXHHHHW4TimeMode@12@CAAW4UErrorCode@@@Z ; has WINAPI (@28)
?setStartRule@SimpleTimeZone@icu_4_0@@QAEXHHHW4TimeMode@12@AAW4UErrorCode@@@Z ; has WINAPI (@20)
?setStartYear@SimpleTimeZone@icu_4_0@@QAEXH@Z ; has WINAPI (@4)
?setStrength@RuleBasedCollator@icu_4_0@@UAEXW4ECollationStrength@Collator@2@@Z ; has WINAPI (@4)
?setString@Formattable@icu_4_0@@QAEXABVUnicodeString@2@@Z ; has WINAPI (@4)
?setSymbol@DecimalFormatSymbols@icu_4_0@@QAEXW4ENumberFormatSymbol@12@ABVUnicodeString@2@@Z ; has WINAPI (@8)
?setTZURL@VTimeZone@icu_4_0@@QAEXABVUnicodeString@2@@Z ; Check!!! forwards to ??4UnicodeString@icu_4_0@@QAEAAV01@ABV01@@Z in icuuc40.dll (ordinal 222)
?setTargetString@BoyerMooreSearch@icu_4_0@@QAEXPBVUnicodeString@2@AAW4UErrorCode@@@Z ; has WINAPI (@8)
?setText@CollationElementIterator@icu_4_0@@QAEXAAVCharacterIterator@2@AAW4UErrorCode@@@Z ; has WINAPI (@8)
?setText@CollationElementIterator@icu_4_0@@QAEXABVUnicodeString@2@AAW4UErrorCode@@@Z ; has WINAPI (@8)
?setText@SearchIterator@icu_4_0@@UAEXAAVCharacterIterator@2@AAW4UErrorCode@@@Z ; has WINAPI (@8)
?setText@SearchIterator@icu_4_0@@UAEXABVUnicodeString@2@AAW4UErrorCode@@@Z ; has WINAPI (@8)
?setText@StringSearch@icu_4_0@@UAEXAAVCharacterIterator@2@AAW4UErrorCode@@@Z ; has WINAPI (@8)
?setText@StringSearch@icu_4_0@@UAEXABVUnicodeString@2@AAW4UErrorCode@@@Z ; has WINAPI (@8)
?setTime@Calendar@icu_4_0@@QAEXNAAW4UErrorCode@@@Z ; has WINAPI (@12)
?setTime@CalendarAstronomer@icu_4_0@@QAEXN@Z ; has WINAPI (@8)
?setTime@TimeZoneTransition@icu_4_0@@QAEXN@Z ; has WINAPI (@8)
?setTimeInMillis@Calendar@icu_4_0@@IAEXNAAW4UErrorCode@@@Z ; has WINAPI (@12)
?setTimeLimit@RegexMatcher@icu_4_0@@UAEXHAAW4UErrorCode@@@Z ; has WINAPI (@8)
?setTimeZone@Calendar@icu_4_0@@QAEXABVTimeZone@2@@Z ; has WINAPI (@4)
?setTimeZone@DateFormat@icu_4_0@@UAEXABVTimeZone@2@@Z ; has WINAPI (@4)
?setTo@TimeZoneTransition@icu_4_0@@QAEXABVTimeZoneRule@2@@Z ; has WINAPI (@4)
?setToBogus@CollationKey@icu_4_0@@AAEAAV12@XZ
?setTrace@RegexMatcher@icu_4_0@@QAEXC@Z ; has WINAPI (@4)
?setTransliterators@CompoundTransliterator@icu_4_0@@QAEXQBQAVTransliterator@2@H@Z ; has WINAPI (@8)
?setUCollator@RuleBasedCollator@icu_4_0@@AAEXABVLocale@2@AAW4UErrorCode@@@Z ; has WINAPI (@8)
?setUCollator@RuleBasedCollator@icu_4_0@@AAEXPAUUCollator@@@Z ; has WINAPI (@4)
?setUCollator@RuleBasedCollator@icu_4_0@@AAEXPBDAAW4UErrorCode@@@Z ; has WINAPI (@8)
?setVariableTop@RuleBasedCollator@icu_4_0@@UAEIPB_WHAAW4UErrorCode@@@Z ; has WINAPI (@12)
?setVariableTop@RuleBasedCollator@icu_4_0@@UAEIVUnicodeString@2@AAW4UErrorCode@@@Z ; has WINAPI (@40)
?setVariableTop@RuleBasedCollator@icu_4_0@@UAEXIAAW4UErrorCode@@@Z ; has WINAPI (@8)
?setWeekCountData@Calendar@icu_4_0@@AAEXABVLocale@2@PBDAAW4UErrorCode@@@Z ; has WINAPI (@12)
?setWeekdays@DateFormatSymbols@icu_4_0@@QAEXPBVUnicodeString@2@H@Z ; has WINAPI (@8)
?setWeekdays@DateFormatSymbols@icu_4_0@@QAEXPBVUnicodeString@2@HW4DtContextType@12@W4DtWidthType@12@@Z ; has WINAPI (@16)
?setZoneStrings@DateFormatSymbols@icu_4_0@@QAEXPBQBVUnicodeString@2@HH@Z ; has WINAPI (@12)
?size@CEList@icu_4_0@@QBEHXZ
?size@StringList@icu_4_0@@QBEHXZ
?skipPadding@DecimalFormat@icu_4_0@@ABEHABVUnicodeString@2@H@Z ; has WINAPI (@8)
?skipRuleWhiteSpace@DecimalFormat@icu_4_0@@CAHABVUnicodeString@2@H@Z
?skipUWhiteSpace@DecimalFormat@icu_4_0@@CAHABVUnicodeString@2@H@Z
?split@RegexMatcher@icu_4_0@@UAEHABVUnicodeString@2@QAV32@HAAW4UErrorCode@@@Z ; has WINAPI (@16)
?split@RegexPattern@icu_4_0@@UBEHABVUnicodeString@2@QAV32@HAAW4UErrorCode@@@Z ; has WINAPI (@16)
?splitPatternInto2Part@DateIntervalFormat@icu_4_0@@CAHABVUnicodeString@2@@Z
?start@RegexMatcher@icu_4_0@@UBEHAAW4UErrorCode@@@Z ; has WINAPI (@4)
?start@RegexMatcher@icu_4_0@@UBEHHAAW4UErrorCode@@@Z ; has WINAPI (@8)
?stod@ChoiceFormat@icu_4_0@@CANABVUnicodeString@2@@Z
?strengthOrder@CollationElementIterator@icu_4_0@@QBEHH@Z ; has WINAPI (@4)
?stringNumeric@DateIntervalInfo@icu_4_0@@CACHHD@Z
?stripWhitespace@RuleBasedNumberFormat@icu_4_0@@AAEXAAVUnicodeString@2@@Z ; has WINAPI (@4)
?subFormat@SimpleDateFormat@icu_4_0@@ABEXAAVUnicodeString@2@_WHAAVFieldPosition@2@AAVCalendar@2@AAW4UErrorCode@@@Z ; has WINAPI (@24)
?subParse@SimpleDateFormat@icu_4_0@@ABEHABVUnicodeString@2@AAH_WHCCQACAAVCalendar@2@@Z ; has WINAPI (@32)
?subformat@DecimalFormat@icu_4_0@@ABEAAVUnicodeString@2@AAV32@AAVFieldPosition@2@AAVDigitList@2@C@Z ; has WINAPI (@16)
?subparse@DecimalFormat@icu_4_0@@ABECABVUnicodeString@2@AAVParsePosition@2@AAVDigitList@2@PACPA_W@Z ; has WINAPI (@20)
?syntaxError@Format@icu_4_0@@KAXABVUnicodeString@2@HAAUUParseError@@@Z
?tertiaryOrder@CollationElementIterator@icu_4_0@@SAHH@Z
?timeOfAngle@CalendarAstronomer@icu_4_0@@QAENAAVAngleFunc@12@NNNC@Z ; has WINAPI (@32)
?toLocalizedPattern@DecimalFormat@icu_4_0@@UBEAAVUnicodeString@2@AAV32@@Z ; has WINAPI (@4)
?toLocalizedPattern@SimpleDateFormat@icu_4_0@@UBEAAVUnicodeString@2@AAV32@AAW4UErrorCode@@@Z ; has WINAPI (@8)
?toPattern@ChoiceFormat@icu_4_0@@UBEAAVUnicodeString@2@AAV32@@Z ; has WINAPI (@4)
?toPattern@DecimalFormat@icu_4_0@@ABEAAVUnicodeString@2@AAV32@C@Z ; has WINAPI (@8)
?toPattern@DecimalFormat@icu_4_0@@UBEAAVUnicodeString@2@AAV32@@Z ; has WINAPI (@4)
?toPattern@MessageFormat@icu_4_0@@UBEAAVUnicodeString@2@AAV32@@Z ; has WINAPI (@4)
?toPattern@PluralFormat@icu_4_0@@QAEAAVUnicodeString@2@AAV32@@Z ; has WINAPI (@4)
?toPattern@SimpleDateFormat@icu_4_0@@UBEAAVUnicodeString@2@AAV32@@Z ; has WINAPI (@4)
?toRules@CompoundTransliterator@icu_4_0@@UBEAAVUnicodeString@2@AAV32@C@Z ; has WINAPI (@8)
?toRules@Transliterator@icu_4_0@@UBEAAVUnicodeString@2@AAV32@C@Z ; has WINAPI (@8)
?toString@Ecliptic@CalendarAstronomer@icu_4_0@@QBE?AVUnicodeString@3@XZ ; has WINAPI (@4)
?toString@Equatorial@CalendarAstronomer@icu_4_0@@QBE?AVUnicodeString@3@XZ ; has WINAPI (@4)
?toString@Horizon@CalendarAstronomer@icu_4_0@@QBE?AVUnicodeString@3@XZ ; has WINAPI (@4)
?translatePattern@SimpleDateFormat@icu_4_0@@CAXABVUnicodeString@2@AAV32@00AAW4UErrorCode@@@Z
?transliterate@Transliterator@icu_4_0@@UBEHAAVReplaceable@2@HH@Z ; has WINAPI (@12)
?transliterate@Transliterator@icu_4_0@@UBEXAAVReplaceable@2@@Z ; has WINAPI (@4)
?transliterate@Transliterator@icu_4_0@@UBEXAAVReplaceable@2@AAUUTransPosition@@AAW4UErrorCode@@@Z ; has WINAPI (@12)
?transliterate@Transliterator@icu_4_0@@UBEXAAVReplaceable@2@AAUUTransPosition@@ABVUnicodeString@2@AAW4UErrorCode@@@Z ; has WINAPI (@16)
?transliterate@Transliterator@icu_4_0@@UBEXAAVReplaceable@2@AAUUTransPosition@@HAAW4UErrorCode@@@Z ; has WINAPI (@16)
?unregister@Calendar@icu_4_0@@SACPBXAAW4UErrorCode@@@Z
?unregister@Collator@icu_4_0@@SACPBXAAW4UErrorCode@@@Z
?unregister@NumberFormat@icu_4_0@@SACPBXAAW4UErrorCode@@@Z
?unregister@Transliterator@icu_4_0@@SAXABVUnicodeString@2@@Z
?updateTime@Calendar@icu_4_0@@AAEXAAW4UErrorCode@@@Z ; has WINAPI (@4)
?useAnchoringBounds@RegexMatcher@icu_4_0@@UAEAAV12@C@Z ; has WINAPI (@4)
?useDaylightTime@RuleBasedTimeZone@icu_4_0@@UBECXZ
?useDaylightTime@SimpleTimeZone@icu_4_0@@UBECXZ
?useDaylightTime@VTimeZone@icu_4_0@@UBECXZ ; Check!!! Couldn't determine function argument count. Function doesn't return. 
?useTransparentBounds@RegexMatcher@icu_4_0@@UAEAAV12@C@Z ; has WINAPI (@4)
?usesNamedArguments@MessageFormat@icu_4_0@@QBECXZ
?validateField@Calendar@icu_4_0@@AAEXW4UCalendarDateFields@@HHAAW4UErrorCode@@@Z ; has WINAPI (@16)
?validateField@Calendar@icu_4_0@@EAEXW4UCalendarDateFields@@AAW4UErrorCode@@@Z ; has WINAPI (@8)
?validateFields@Calendar@icu_4_0@@AAEXAAW4UErrorCode@@@Z ; has WINAPI (@4)
?validateFields@GregorianCalendar@icu_4_0@@ABECXZ
?visible@CollatorFactory@icu_4_0@@UBECXZ
?visible@SimpleNumberFormatFactory@icu_4_0@@UBECXZ
?weekNumber@Calendar@icu_4_0@@IAEHHH@Z ; has WINAPI (@8)
?weekNumber@Calendar@icu_4_0@@IAEHHHH@Z ; has WINAPI (@12)
?write@VTimeZone@icu_4_0@@AAEXNAAVVTZWriter@2@AAW4UErrorCode@@@Z ; has WINAPI (@16)
?write@VTimeZone@icu_4_0@@ABEXAAVVTZWriter@2@AAW4UErrorCode@@@Z ; has WINAPI (@8)
?write@VTimeZone@icu_4_0@@QAEXNAAVUnicodeString@2@AAW4UErrorCode@@@Z ; has WINAPI (@16)
?write@VTimeZone@icu_4_0@@QBEXAAVUnicodeString@2@AAW4UErrorCode@@@Z ; has WINAPI (@8)
?writeFinalRule@VTimeZone@icu_4_0@@ABEXAAVVTZWriter@2@CPBVAnnualTimeZoneRule@2@HHNAAW4UErrorCode@@@Z ; has WINAPI (@32)
?writeFooter@VTimeZone@icu_4_0@@ABEXAAVVTZWriter@2@AAW4UErrorCode@@@Z ; has WINAPI (@8)
?writeHeaders@VTimeZone@icu_4_0@@ABEXAAVVTZWriter@2@AAW4UErrorCode@@@Z ; has WINAPI (@8)
?writeSimple@VTimeZone@icu_4_0@@AAEXNAAVVTZWriter@2@AAW4UErrorCode@@@Z ; has WINAPI (@16)
?writeSimple@VTimeZone@icu_4_0@@QAEXNAAVUnicodeString@2@AAW4UErrorCode@@@Z ; has WINAPI (@16)
?writeZone@VTimeZone@icu_4_0@@ABEXAAVVTZWriter@2@AAVBasicTimeZone@2@PAVUVector@2@AAW4UErrorCode@@@Z ; has WINAPI (@16)
?writeZonePropsByDOM@VTimeZone@icu_4_0@@ABEXAAVVTZWriter@2@CABVUnicodeString@2@HHHHNNAAW4UErrorCode@@@Z ; has WINAPI (@48)
?writeZonePropsByDOW@VTimeZone@icu_4_0@@ABEXAAVVTZWriter@2@CABVUnicodeString@2@HHHHHNNAAW4UErrorCode@@@Z ; has WINAPI (@52)
?writeZonePropsByDOW_GEQ_DOM@VTimeZone@icu_4_0@@ABEXAAVVTZWriter@2@CABVUnicodeString@2@HHHHHNNAAW4UErrorCode@@@Z ; has WINAPI (@52)
?writeZonePropsByDOW_GEQ_DOM_sub@VTimeZone@icu_4_0@@ABEXAAVVTZWriter@2@HHHHNHAAW4UErrorCode@@@Z ; has WINAPI (@36)
?writeZonePropsByDOW_LEQ_DOM@VTimeZone@icu_4_0@@ABEXAAVVTZWriter@2@CABVUnicodeString@2@HHHHHNNAAW4UErrorCode@@@Z ; has WINAPI (@52)
?writeZonePropsByTime@VTimeZone@icu_4_0@@ABEXAAVVTZWriter@2@CABVUnicodeString@2@HHNCAAW4UErrorCode@@@Z ; has WINAPI (@36)
?yearLength@GregorianCalendar@icu_4_0@@IBEHH@Z ; has WINAPI (@4)
?yearLength@GregorianCalendar@icu_4_0@@IBEHXZ
?zap@RegexPattern@icu_4_0@@AAEXXZ
?zeroPaddingNumber@SimpleDateFormat@icu_4_0@@ABEXAAVUnicodeString@2@HHH@Z ; has WINAPI (@16)
bms_close
bms_empty
bms_getData
bms_open
bms_search
bms_setTargetString
u_formatMessageWithError_4_0
u_formatMessage_4_0
u_parseMessageWithError_4_0
u_parseMessage_4_0
u_vformatMessageWithError_4_0
u_vformatMessage_4_0
u_vparseMessageWithError_4_0
u_vparseMessage_4_0
ucal_add_4_0
ucal_clearField_4_0
ucal_clear_4_0
ucal_clone_4_0
ucal_close_4_0
ucal_countAvailable_4_0 ; Check!!! forwards to uloc_countAvailable_4_0 in icuuc40.dll (ordinal 1474)
ucal_equivalentTo_4_0
ucal_getAttribute_4_0
ucal_getAvailable_4_0 ; Check!!! forwards to uloc_getAvailable_4_0 in icuuc40.dll (ordinal 1475)
ucal_getCanonicalTimeZoneID_4_0
ucal_getDSTSavings_4_0
ucal_getDefaultTimeZone_4_0
ucal_getGregorianChange_4_0
ucal_getLimit_4_0
ucal_getLocaleByType_4_0
ucal_getMillis_4_0
ucal_getNow_4_0 ; Check!!! forwards to uprv_getUTCtime_4_0 in icuuc40.dll (ordinal 1554)
ucal_getTZDataVersion_4_0
ucal_getTimeZoneDisplayName_4_0
ucal_get_4_0
ucal_inDaylightTime_4_0
ucal_isSet_4_0
ucal_openCountryTimeZones_4_0
ucal_openTimeZones_4_0
ucal_open_4_0
ucal_roll_4_0
ucal_setAttribute_4_0
ucal_setDateTime_4_0
ucal_setDate_4_0
ucal_setDefaultTimeZone_4_0
ucal_setGregorianChange_4_0
ucal_setMillis_4_0
ucal_setTimeZone_4_0
ucal_set_4_0
ucd_close
ucd_flushCache
ucd_freeCache
ucd_getCollator
ucd_open
ucol_cloneBinary_4_0
ucol_closeElements_4_0
ucol_close_4_0
ucol_countAvailable_4_0
ucol_equal_4_0
ucol_equals_4_0
ucol_forceHanImplicit
ucol_forgetUCA_4_0
ucol_getAttributeOrDefault_4_0
ucol_getAttribute_4_0
ucol_getAvailable_4_0
ucol_getBound_4_0
ucol_getContractionsAndExpansions_4_0
ucol_getContractions_4_0
ucol_getDisplayName_4_0
ucol_getFunctionalEquivalent_4_0
ucol_getKeywordValues_4_0
ucol_getKeywords_4_0
ucol_getLocaleByType_4_0
ucol_getLocale_4_0
ucol_getMaxExpansion_4_0
ucol_getNextCE_4_0
ucol_getOffset_4_0
ucol_getRulesEx_4_0
ucol_getRules_4_0
ucol_getShortDefinitionString_4_0
ucol_getSortKey_4_0
ucol_getStrength_4_0
ucol_getTailoredSet_4_0
ucol_getUCAVersion_4_0
ucol_getUnsafeSet_4_0
ucol_getVariableTop_4_0
ucol_getVersion_4_0
ucol_greaterOrEqual_4_0
ucol_greater_4_0
ucol_initInverseUCA_4_0
ucol_inv_getNextCE_4_0
ucol_isTailored_4_0
ucol_keyHashCode_4_0
ucol_mergeSortkeys_4_0
ucol_nextProcessed_4_0
ucol_nextSortKeyPart_4_0
ucol_next_4_0
ucol_normalizeShortDefinitionString_4_0
ucol_openAvailableLocales_4_0
ucol_openBinary_4_0
ucol_openElements_4_0
ucol_openFromShortString_4_0
ucol_openRules_4_0
ucol_open_4_0
ucol_prepareShortStringOpen_4_0
ucol_previousProcessed_4_0
ucol_previous_4_0
ucol_primaryOrder_4_0
ucol_reset_4_0
ucol_restoreVariableTop_4_0
ucol_safeClone_4_0
ucol_secondaryOrder_4_0
ucol_setAttribute_4_0
ucol_setOffset_4_0
ucol_setStrength_4_0
ucol_setText_4_0
ucol_setVariableTop_4_0
ucol_strcollIter_4_0
ucol_strcoll_4_0
ucol_tertiaryOrder_4_0
ucol_tok_getNextArgument_4_0
ucol_tok_parseNextToken_4_0
ucsdet_close_4_0
ucsdet_detectAll_4_0
ucsdet_detect_4_0
ucsdet_enableInputFilter_4_0
ucsdet_getAllDetectableCharsets_4_0
ucsdet_getConfidence_4_0
ucsdet_getLanguage_4_0
ucsdet_getName_4_0
ucsdet_getUChars_4_0
ucsdet_isInputFilterEnabled_4_0
ucsdet_open_4_0
ucsdet_setDeclaredEncoding_4_0
ucsdet_setText_4_0
ucurr_countCurrencies_4_0
ucurr_forLocaleAndDate_4_0
ucurr_forLocale_4_0
ucurr_getDefaultFractionDigits_4_0
ucurr_getName_4_0
ucurr_getRoundingIncrement_4_0
ucurr_openISOCurrencies_4_0
ucurr_register_4_0
ucurr_unregister_4_0
udat_applyPattern_4_0
udat_clone_4_0
udat_close_4_0
udat_countAvailable_4_0 ; Check!!! forwards to uloc_countAvailable_4_0 in icuuc40.dll (ordinal 1474)
udat_countSymbols_4_0
udat_format_4_0
udat_get2DigitYearStart_4_0
udat_getAvailable_4_0 ; Check!!! forwards to uloc_getAvailable_4_0 in icuuc40.dll (ordinal 1475)
udat_getCalendar_4_0 ; Check!!! Couldn't determine function argument count. Function doesn't return. 
udat_getLocaleByType_4_0
udat_getNumberFormat_4_0 ; Check!!! Couldn't determine function argument count. Function doesn't return. 
udat_getSymbols_4_0
udat_isLenient_4_0 ; Check!!! Couldn't determine function argument count. Function doesn't return. 
udat_open_4_0
udat_parseCalendar_4_0
udat_parse_4_0
udat_set2DigitYearStart_4_0
udat_setCalendar_4_0
udat_setLenient_4_0
udat_setNumberFormat_4_0
udat_setSymbols_4_0
udat_toPattern_4_0
udatpg_addPattern_4_0
udatpg_clone_4_0
udatpg_close_4_0
udatpg_getAppendItemFormat_4_0
udatpg_getAppendItemName_4_0
udatpg_getBaseSkeleton_4_0
udatpg_getBestPattern_4_0
udatpg_getDateTimeFormat_4_0
udatpg_getDecimal_4_0
udatpg_getPatternForSkeleton_4_0
udatpg_getSkeleton_4_0
udatpg_openBaseSkeletons_4_0
udatpg_openEmpty_4_0
udatpg_openSkeletons_4_0
udatpg_open_4_0
udatpg_replaceFieldTypes_4_0
udatpg_setAppendItemFormat_4_0
udatpg_setAppendItemName_4_0
udatpg_setDateTimeFormat_4_0
udatpg_setDecimal_4_0
ulocdata_close_4_0
ulocdata_getDelimiter_4_0
ulocdata_getExemplarSet_4_0
ulocdata_getMeasurementSystem_4_0
ulocdata_getNoSubstitute_4_0
ulocdata_getPaperSize_4_0
ulocdata_open_4_0
ulocdata_setNoSubstitute_4_0
umsg_applyPattern_4_0
umsg_autoQuoteApostrophe_4_0
umsg_clone_4_0
umsg_close_4_0
umsg_format_4_0
umsg_getLocale_4_0
umsg_open_4_0
umsg_parse_4_0
umsg_setLocale_4_0
umsg_toPattern_4_0
umsg_vformat_4_0
umsg_vparse_4_0
unum_applyPattern_4_0
unum_clone_4_0
unum_close_4_0
unum_countAvailable_4_0 ; Check!!! forwards to uloc_countAvailable_4_0 in icuuc40.dll (ordinal 1474)
unum_formatDoubleCurrency_4_0
unum_formatDouble_4_0
unum_formatInt64_4_0
unum_format_4_0
unum_getAttribute_4_0
unum_getAvailable_4_0 ; Check!!! forwards to uloc_getAvailable_4_0 in icuuc40.dll (ordinal 1475)
unum_getDoubleAttribute_4_0
unum_getLocaleByType_4_0
unum_getSymbol_4_0
unum_getTextAttribute_4_0
unum_open_4_0
unum_parseDoubleCurrency_4_0
unum_parseDouble_4_0
unum_parseInt64_4_0
unum_parse_4_0
unum_setAttribute_4_0
unum_setDoubleAttribute_4_0
unum_setSymbol_4_0
unum_setTextAttribute_4_0
unum_toPattern_4_0
uprv_cnttab_addContraction_4_0
uprv_cnttab_changeContraction_4_0
uprv_cnttab_changeLastCE_4_0
uprv_cnttab_clone_4_0
uprv_cnttab_close_4_0
uprv_cnttab_constructTable_4_0
uprv_cnttab_findCE_4_0
uprv_cnttab_findCP_4_0
uprv_cnttab_getCE_4_0
uprv_cnttab_insertContraction_4_0
uprv_cnttab_isTailored_4_0
uprv_cnttab_open_4_0
uprv_cnttab_setContraction_4_0
uprv_init_collIterate_4_0
uprv_init_pce_4_0
uprv_uca_addAnElement_4_0
uprv_uca_assembleTable_4_0
uprv_uca_canonicalClosure_4_0
uprv_uca_closeTempTable_4_0
uprv_uca_getCodePointFromRaw_4_0
uprv_uca_getImplicitFromRaw_4_0
uprv_uca_getRawFromCodePoint_4_0
uprv_uca_getRawFromImplicit_4_0
uprv_uca_initImplicitConstants_4_0
uprv_uca_initTempTable_4_0
uregex_appendReplacement_4_0
uregex_appendTail_4_0
uregex_clone_4_0
uregex_close_4_0
uregex_end_4_0
uregex_findNext_4_0
uregex_find_4_0
uregex_flags_4_0
uregex_getMatchCallback_4_0
uregex_getStackLimit_4_0
uregex_getText_4_0
uregex_getTimeLimit_4_0
uregex_groupCount_4_0
uregex_group_4_0
uregex_hasAnchoringBounds_4_0
uregex_hasTransparentBounds_4_0
uregex_hitEnd_4_0
uregex_lookingAt_4_0
uregex_matches_4_0
uregex_openC_4_0
uregex_open_4_0
uregex_pattern_4_0
uregex_regionEnd_4_0
uregex_regionStart_4_0
uregex_replaceAll_4_0
uregex_replaceFirst_4_0
uregex_requireEnd_4_0
uregex_reset_4_0
uregex_setMatchCallback_4_0
uregex_setRegion_4_0
uregex_setStackLimit_4_0
uregex_setText_4_0
uregex_setTimeLimit_4_0
uregex_split_4_0
uregex_start_4_0
uregex_useAnchoringBounds_4_0
uregex_useTransparentBounds_4_0
usearch_close_4_0
usearch_first_4_0
usearch_following_4_0
usearch_getAttribute_4_0
usearch_getBreakIterator_4_0
usearch_getCollator_4_0
usearch_getMatchedLength_4_0
usearch_getMatchedStart_4_0
usearch_getMatchedText_4_0
usearch_getOffset_4_0
usearch_getPattern_4_0
usearch_getText_4_0
usearch_last_4_0
usearch_next_4_0
usearch_openFromCollator_4_0
usearch_open_4_0
usearch_preceding_4_0
usearch_previous_4_0
usearch_reset_4_0
usearch_searchBackwards_4_0
usearch_search_4_0
usearch_setAttribute_4_0
usearch_setBreakIterator_4_0
usearch_setCollator_4_0
usearch_setOffset_4_0
usearch_setPattern_4_0
usearch_setText_4_0
utmscale_fromInt64_4_0
utmscale_getTimeScaleValue_4_0
utmscale_toInt64_4_0
utrans_clone_4_0
utrans_close_4_0
utrans_countAvailableIDs_4_0
utrans_getAvailableID_4_0
utrans_getID_4_0
utrans_getUnicodeID_4_0
utrans_openIDs_4_0
utrans_openInverse_4_0
utrans_openU_4_0
utrans_open_4_0
utrans_register_4_0
utrans_setFilter_4_0
utrans_stripRules_4_0
utrans_transIncrementalUChars_4_0
utrans_transIncremental_4_0
utrans_transUChars_4_0
utrans_trans_4_0
utrans_unregisterID_4_0
utrans_unregister_4_0
