;
; Definition file of icuuc40.dll
; Automatic generated by gendef
; written by Kai Tietz 2008
;
LIBRARY "icuuc40.dll"
EXPORTS
??0BreakIterator@icu_4_0@@IAE@ABV01@@Z ; has WINAPI (@4)
??0BreakIterator@icu_4_0@@IAE@XZ
??0CanonicalIterator@icu_4_0@@QAE@ABVUnicodeString@1@AAW4UErrorCode@@@Z ; has WINAPI (@8)
??0CharString@icu_4_0@@QAE@ABVUnicodeString@1@@Z ; has WINAPI (@4)
??0CharacterIterator@icu_4_0@@IAE@ABV01@@Z ; has WINAPI (@4)
??0CharacterIterator@icu_4_0@@IAE@H@Z ; has WINAPI (@4)
??0CharacterIterator@icu_4_0@@IAE@HH@Z ; has WINAPI (@8)
??0CharacterIterator@icu_4_0@@IAE@HHHH@Z ; has WINAPI (@16)
??0CharacterIterator@icu_4_0@@IAE@XZ
??0CompactTrieDictionary@icu_4_0@@QAE@ABV01@@Z ; has WINAPI (@4)
??0CompactTrieDictionary@icu_4_0@@QAE@ABVMutableTrieDictionary@1@AAW4UErrorCode@@@Z ; has WINAPI (@8)
??0CompactTrieDictionary@icu_4_0@@QAE@PAUUDataMemory@@AAW4UErrorCode@@@Z ; has WINAPI (@8)
??0CompactTrieDictionary@icu_4_0@@QAE@PBXAAW4UErrorCode@@@Z ; has WINAPI (@8)
??0DateInterval@icu_4_0@@QAE@ABV01@@Z ; has WINAPI (@4)
??0DateInterval@icu_4_0@@QAE@NN@Z ; has WINAPI (@16)
??0EventListener@icu_4_0@@QAE@ABV01@@Z ; has WINAPI (@4)
??0EventListener@icu_4_0@@QAE@XZ
??0ForwardCharacterIterator@icu_4_0@@IAE@ABV01@@Z ; has WINAPI (@4)
??0ForwardCharacterIterator@icu_4_0@@IAE@XZ
??0Hashtable@icu_4_0@@QAE@AAW4UErrorCode@@@Z ; has WINAPI (@4)
??0Hashtable@icu_4_0@@QAE@CAAW4UErrorCode@@@Z ; has WINAPI (@8)
??0Hashtable@icu_4_0@@QAE@P6ACTUHashTok@@0@Z1AAW4UErrorCode@@@Z ; has WINAPI (@12)
??0Hashtable@icu_4_0@@QAE@XZ
??0ICULocaleService@icu_4_0@@QAE@ABV01@@Z ; has WINAPI (@4)
??0ICULocaleService@icu_4_0@@QAE@ABVUnicodeString@1@@Z ; has WINAPI (@4)
??0ICULocaleService@icu_4_0@@QAE@XZ
??0ICUNotifier@icu_4_0@@QAE@ABV01@@Z ; has WINAPI (@4)
??0ICUNotifier@icu_4_0@@QAE@XZ
??0ICUResourceBundleFactory@icu_4_0@@QAE@ABV01@@Z ; has WINAPI (@4)
??0ICUResourceBundleFactory@icu_4_0@@QAE@ABVUnicodeString@1@@Z ; has WINAPI (@4)
??0ICUResourceBundleFactory@icu_4_0@@QAE@XZ
??0ICUService@icu_4_0@@QAE@ABV01@@Z ; has WINAPI (@4)
??0ICUService@icu_4_0@@QAE@ABVUnicodeString@1@@Z ; has WINAPI (@4)
??0ICUService@icu_4_0@@QAE@XZ
??0ICUServiceFactory@icu_4_0@@QAE@ABV01@@Z ; has WINAPI (@4)
??0ICUServiceFactory@icu_4_0@@QAE@XZ
??0ICUServiceKey@icu_4_0@@QAE@ABV01@@Z ; has WINAPI (@4)
??0ICUServiceKey@icu_4_0@@QAE@ABVUnicodeString@1@@Z ; has WINAPI (@4)
??0Locale@icu_4_0@@AAE@W4ELocaleType@01@@Z ; has WINAPI (@4)
??0Locale@icu_4_0@@QAE@ABV01@@Z ; has WINAPI (@4)
??0Locale@icu_4_0@@QAE@PBD000@Z ; has WINAPI (@16)
??0Locale@icu_4_0@@QAE@XZ
??0LocaleBased@icu_4_0@@QAE@PAD0@Z ; has WINAPI (@8)
??0LocaleBased@icu_4_0@@QAE@PBD0@Z ; has WINAPI (@8)
??0LocaleKey@icu_4_0@@IAE@ABVUnicodeString@1@0PBV21@H@Z ; has WINAPI (@16)
??0LocaleKey@icu_4_0@@QAE@ABV01@@Z ; has WINAPI (@4)
??0LocaleKeyFactory@icu_4_0@@IAE@H@Z ; has WINAPI (@4)
??0LocaleKeyFactory@icu_4_0@@IAE@HABVUnicodeString@1@@Z ; has WINAPI (@8)
??0LocaleKeyFactory@icu_4_0@@QAE@ABV01@@Z ; has WINAPI (@4)
??0MutableTrieDictionary@icu_4_0@@AAE@AAW4UErrorCode@@@Z ; has WINAPI (@4)
??0MutableTrieDictionary@icu_4_0@@QAE@ABV01@@Z ; has WINAPI (@4)
??0MutableTrieDictionary@icu_4_0@@QAE@_WAAW4UErrorCode@@@Z ; has WINAPI (@8)
??0Mutex@icu_4_0@@QAE@PAPAX@Z ; has WINAPI (@4)
??0Normalizer@icu_4_0@@QAE@ABV01@@Z ; has WINAPI (@4)
??0Normalizer@icu_4_0@@QAE@ABVCharacterIterator@1@W4UNormalizationMode@@@Z ; has WINAPI (@8)
??0Normalizer@icu_4_0@@QAE@ABVUnicodeString@1@W4UNormalizationMode@@@Z ; has WINAPI (@8)
??0Normalizer@icu_4_0@@QAE@PB_WHW4UNormalizationMode@@@Z ; has WINAPI (@12)
??0ParsePosition@icu_4_0@@QAE@ABV01@@Z ; has WINAPI (@4)
??0ParsePosition@icu_4_0@@QAE@H@Z ; has WINAPI (@4)
??0ParsePosition@icu_4_0@@QAE@XZ
??0Replaceable@icu_4_0@@IAE@XZ
??0Replaceable@icu_4_0@@QAE@ABV01@@Z ; has WINAPI (@4)
??0ResourceBundle@icu_4_0@@QAE@AAW4UErrorCode@@@Z ; has WINAPI (@4)
??0ResourceBundle@icu_4_0@@QAE@ABV01@@Z ; has WINAPI (@4)
??0ResourceBundle@icu_4_0@@QAE@ABVUnicodeString@1@AAW4UErrorCode@@@Z ; has WINAPI (@8)
??0ResourceBundle@icu_4_0@@QAE@ABVUnicodeString@1@ABVLocale@1@AAW4UErrorCode@@@Z ; has WINAPI (@12)
??0ResourceBundle@icu_4_0@@QAE@PAUUResourceBundle@@AAW4UErrorCode@@@Z ; has WINAPI (@8)
??0ResourceBundle@icu_4_0@@QAE@PBDABVLocale@1@AAW4UErrorCode@@@Z ; has WINAPI (@12)
??0RuleBasedBreakIterator@icu_4_0@@IAE@PAURBBIDataHeader@1@AAW4UErrorCode@@@Z ; has WINAPI (@8)
??0RuleBasedBreakIterator@icu_4_0@@QAE@ABV01@@Z ; has WINAPI (@4)
??0RuleBasedBreakIterator@icu_4_0@@QAE@ABVUnicodeString@1@AAUUParseError@@AAW4UErrorCode@@@Z ; has WINAPI (@12)
??0RuleBasedBreakIterator@icu_4_0@@QAE@PAUUDataMemory@@AAW4UErrorCode@@@Z ; has WINAPI (@8)
??0RuleBasedBreakIterator@icu_4_0@@QAE@XZ
??0ServiceListener@icu_4_0@@QAE@ABV01@@Z ; has WINAPI (@4)
??0ServiceListener@icu_4_0@@QAE@XZ
??0SimpleFactory@icu_4_0@@QAE@ABV01@@Z ; has WINAPI (@4)
??0SimpleFactory@icu_4_0@@QAE@PAVUObject@1@ABVUnicodeString@1@C@Z ; has WINAPI (@12)
??0SimpleLocaleKeyFactory@icu_4_0@@QAE@ABV01@@Z ; has WINAPI (@4)
??0SimpleLocaleKeyFactory@icu_4_0@@QAE@PAVUObject@1@ABVLocale@1@HH@Z ; has WINAPI (@16)
??0SimpleLocaleKeyFactory@icu_4_0@@QAE@PAVUObject@1@ABVUnicodeString@1@HH@Z ; has WINAPI (@16)
??0StringCharacterIterator@icu_4_0@@IAE@XZ
??0StringCharacterIterator@icu_4_0@@QAE@ABV01@@Z ; has WINAPI (@4)
??0StringCharacterIterator@icu_4_0@@QAE@ABVUnicodeString@1@@Z ; has WINAPI (@4)
??0StringCharacterIterator@icu_4_0@@QAE@ABVUnicodeString@1@H@Z ; has WINAPI (@8)
??0StringCharacterIterator@icu_4_0@@QAE@ABVUnicodeString@1@HHH@Z ; has WINAPI (@16)
??0StringEnumeration@icu_4_0@@IAE@XZ
??0StringEnumeration@icu_4_0@@QAE@ABV01@@Z ; has WINAPI (@4)
??0StringPair@icu_4_0@@AAE@ABVUnicodeString@1@0@Z ; has WINAPI (@8)
??0StringPair@icu_4_0@@QAE@ABV01@@Z ; has WINAPI (@4)
??0SymbolTable@icu_4_0@@QAE@ABV01@@Z ; has WINAPI (@4)
??0SymbolTable@icu_4_0@@QAE@XZ
??0TrieWordDictionary@icu_4_0@@QAE@ABV01@@Z ; has WINAPI (@4)
??0TrieWordDictionary@icu_4_0@@QAE@XZ
??0UCharCharacterIterator@icu_4_0@@IAE@XZ
??0UCharCharacterIterator@icu_4_0@@QAE@ABV01@@Z ; has WINAPI (@4)
??0UCharCharacterIterator@icu_4_0@@QAE@PB_WH@Z ; has WINAPI (@8)
??0UCharCharacterIterator@icu_4_0@@QAE@PB_WHH@Z ; has WINAPI (@12)
??0UCharCharacterIterator@icu_4_0@@QAE@PB_WHHHH@Z ; has WINAPI (@20)
??0UObject@icu_4_0@@QAE@ABV01@@Z ; has WINAPI (@4)
??0UObject@icu_4_0@@QAE@XZ
??0UStack@icu_4_0@@QAE@AAW4UErrorCode@@@Z ; has WINAPI (@4)
??0UStack@icu_4_0@@QAE@HAAW4UErrorCode@@@Z ; has WINAPI (@8)
??0UStack@icu_4_0@@QAE@P6AXPAX@ZP6ACTUHashTok@@2@ZAAW4UErrorCode@@@Z ; has WINAPI (@12)
??0UStack@icu_4_0@@QAE@P6AXPAX@ZP6ACTUHashTok@@2@ZHAAW4UErrorCode@@@Z ; has WINAPI (@16)
??0UStringEnumeration@icu_4_0@@QAE@ABV01@@Z ; has WINAPI (@4)
??0UStringEnumeration@icu_4_0@@QAE@PAUUEnumeration@@@Z ; has WINAPI (@4)
??0UVector32@icu_4_0@@QAE@AAW4UErrorCode@@@Z ; has WINAPI (@4)
??0UVector32@icu_4_0@@QAE@HAAW4UErrorCode@@@Z ; has WINAPI (@8)
??0UVector@icu_4_0@@QAE@AAW4UErrorCode@@@Z ; has WINAPI (@4)
??0UVector@icu_4_0@@QAE@HAAW4UErrorCode@@@Z ; has WINAPI (@8)
??0UVector@icu_4_0@@QAE@P6AXPAX@ZP6ACTUHashTok@@2@ZAAW4UErrorCode@@@Z ; has WINAPI (@12)
??0UVector@icu_4_0@@QAE@P6AXPAX@ZP6ACTUHashTok@@2@ZHAAW4UErrorCode@@@Z ; has WINAPI (@16)
??0UnicodeFilter@icu_4_0@@QAE@ABV01@@Z ; has WINAPI (@4)
??0UnicodeFilter@icu_4_0@@QAE@XZ
??0UnicodeFunctor@icu_4_0@@QAE@ABV01@@Z ; has WINAPI (@4)
??0UnicodeFunctor@icu_4_0@@QAE@XZ
??0UnicodeMatcher@icu_4_0@@QAE@ABV01@@Z ; has WINAPI (@4)
??0UnicodeMatcher@icu_4_0@@QAE@XZ
??0UnicodeSet@icu_4_0@@AAE@ABV01@C@Z ; has WINAPI (@8)
??0UnicodeSet@icu_4_0@@QAE@ABV01@@Z ; has WINAPI (@4)
??0UnicodeSet@icu_4_0@@QAE@ABVUnicodeString@1@AAVParsePosition@1@IPBVSymbolTable@1@AAW4UErrorCode@@@Z ; has WINAPI (@20)
??0UnicodeSet@icu_4_0@@QAE@ABVUnicodeString@1@AAW4UErrorCode@@@Z ; has WINAPI (@8)
??0UnicodeSet@icu_4_0@@QAE@ABVUnicodeString@1@IPBVSymbolTable@1@AAW4UErrorCode@@@Z ; has WINAPI (@16)
??0UnicodeSet@icu_4_0@@QAE@HH@Z ; has WINAPI (@8)
??0UnicodeSet@icu_4_0@@QAE@XZ
??0UnicodeSetIterator@icu_4_0@@QAE@ABVUnicodeSet@1@@Z ; has WINAPI (@4)
??0UnicodeSetIterator@icu_4_0@@QAE@XZ
??0UnicodeString@icu_4_0@@QAE@ABV01@@Z ; has WINAPI (@4)
??0UnicodeString@icu_4_0@@QAE@ABV01@H@Z ; has WINAPI (@8)
??0UnicodeString@icu_4_0@@QAE@ABV01@HH@Z ; has WINAPI (@12)
??0UnicodeString@icu_4_0@@QAE@CPB_WH@Z ; has WINAPI (@12)
??0UnicodeString@icu_4_0@@QAE@H@Z ; has WINAPI (@4)
??0UnicodeString@icu_4_0@@QAE@HHH@Z ; has WINAPI (@12)
??0UnicodeString@icu_4_0@@QAE@PA_WHH@Z ; has WINAPI (@12)
??0UnicodeString@icu_4_0@@QAE@PBD0@Z ; has WINAPI (@8)
??0UnicodeString@icu_4_0@@QAE@PBDH0@Z ; has WINAPI (@12)
??0UnicodeString@icu_4_0@@QAE@PBDHPAUUConverter@@AAW4UErrorCode@@@Z ; has WINAPI (@16)
??0UnicodeString@icu_4_0@@QAE@PBDHW4EInvariant@01@@Z ; has WINAPI (@12)
??0UnicodeString@icu_4_0@@QAE@PB_W@Z ; has WINAPI (@4)
??0UnicodeString@icu_4_0@@QAE@PB_WH@Z ; has WINAPI (@8)
??0UnicodeString@icu_4_0@@QAE@XZ
??0UnicodeString@icu_4_0@@QAE@_W@Z ; has WINAPI (@4)
??1BreakIterator@icu_4_0@@UAE@XZ
??1CanonicalIterator@icu_4_0@@UAE@XZ
??1CharString@icu_4_0@@QAE@XZ
??1CharacterIterator@icu_4_0@@UAE@XZ
??1CompactTrieDictionary@icu_4_0@@UAE@XZ
??1DateInterval@icu_4_0@@UAE@XZ
??1EventListener@icu_4_0@@UAE@XZ
??1ForwardCharacterIterator@icu_4_0@@UAE@XZ
??1Hashtable@icu_4_0@@QAE@XZ
??1ICULocaleService@icu_4_0@@UAE@XZ
??1ICUNotifier@icu_4_0@@UAE@XZ
??1ICUResourceBundleFactory@icu_4_0@@UAE@XZ
??1ICUService@icu_4_0@@UAE@XZ
??1ICUServiceFactory@icu_4_0@@UAE@XZ
??1ICUServiceKey@icu_4_0@@UAE@XZ
??1Locale@icu_4_0@@UAE@XZ
??1LocaleKey@icu_4_0@@UAE@XZ
??1LocaleKeyFactory@icu_4_0@@UAE@XZ
??1MutableTrieDictionary@icu_4_0@@UAE@XZ
??1Mutex@icu_4_0@@QAE@XZ
??1Normalizer@icu_4_0@@UAE@XZ
??1ParsePosition@icu_4_0@@UAE@XZ
??1Replaceable@icu_4_0@@UAE@XZ
??1ResourceBundle@icu_4_0@@UAE@XZ
??1RuleBasedBreakIterator@icu_4_0@@UAE@XZ
??1ServiceListener@icu_4_0@@UAE@XZ
??1SimpleFactory@icu_4_0@@UAE@XZ
??1SimpleLocaleKeyFactory@icu_4_0@@UAE@XZ
??1StringCharacterIterator@icu_4_0@@UAE@XZ
??1StringEnumeration@icu_4_0@@UAE@XZ
??1StringPair@icu_4_0@@QAE@XZ
??1SymbolTable@icu_4_0@@UAE@XZ
??1TrieWordDictionary@icu_4_0@@UAE@XZ
??1UCharCharacterIterator@icu_4_0@@UAE@XZ
??1UObject@icu_4_0@@UAE@XZ
??1UStack@icu_4_0@@UAE@XZ
??1UStringEnumeration@icu_4_0@@UAE@XZ
??1UVector32@icu_4_0@@UAE@XZ
??1UVector@icu_4_0@@UAE@XZ
??1UnicodeFilter@icu_4_0@@UAE@XZ
??1UnicodeFunctor@icu_4_0@@UAE@XZ
??1UnicodeMatcher@icu_4_0@@UAE@XZ
??1UnicodeSet@icu_4_0@@UAE@XZ
??1UnicodeSetIterator@icu_4_0@@UAE@XZ
??1UnicodeString@icu_4_0@@UAE@XZ
??2UMemory@icu_4_0@@SAPAXI@Z
??2UMemory@icu_4_0@@SAPAXIPAX@Z
??2UMemory@icu_4_0@@SAPAXIPBDH@Z
??3UMemory@icu_4_0@@SAXPAX0@Z
??3UMemory@icu_4_0@@SAXPAX@Z
??3UMemory@icu_4_0@@SAXPAXPBDH@Z
??4CharacterIterator@icu_4_0@@IAEAAV01@ABV01@@Z ; has WINAPI (@4)
??4CompactTrieDictionary@icu_4_0@@QAEAAV01@ABV01@@Z ; has WINAPI (@4)
??4DateInterval@icu_4_0@@QAEAAV01@ABV01@@Z ; has WINAPI (@4)
??4EventListener@icu_4_0@@QAEAAV01@ABV01@@Z ; has WINAPI (@4)
??4ForwardCharacterIterator@icu_4_0@@IAEAAV01@ABV01@@Z ; has WINAPI (@4)
??4ICUNotifier@icu_4_0@@QAEAAV01@ABV01@@Z ; has WINAPI (@4)
??4ICUServiceFactory@icu_4_0@@QAEAAV01@ABV01@@Z ; has WINAPI (@4)
??4ICU_Utility@icu_4_0@@QAEAAV01@ABV01@@Z ; has WINAPI (@4)
??4Locale@icu_4_0@@QAEAAV01@ABV01@@Z ; has WINAPI (@4)
??4LocaleBased@icu_4_0@@QAEAAV01@ABV01@@Z ; has WINAPI (@4)
??4LocaleUtility@icu_4_0@@QAEAAV01@ABV01@@Z ; has WINAPI (@4)
??4MutableTrieDictionary@icu_4_0@@QAEAAV01@ABV01@@Z ; has WINAPI (@4)
??4ParsePosition@icu_4_0@@QAEAAV01@ABV01@@Z ; has WINAPI (@4)
??4Replaceable@icu_4_0@@QAEAAV01@ABV01@@Z ; has WINAPI (@4)
??4ResourceBundle@icu_4_0@@QAEAAV01@ABV01@@Z ; has WINAPI (@4)
??4RuleBasedBreakIterator@icu_4_0@@QAEAAV01@ABV01@@Z ; has WINAPI (@4)
??4ServiceListener@icu_4_0@@QAEAAV01@ABV01@@Z ; has WINAPI (@4)
??4StringCharacterIterator@icu_4_0@@QAEAAV01@ABV01@@Z ; has WINAPI (@4)
??4StringEnumeration@icu_4_0@@QAEAAV01@ABV01@@Z ; has WINAPI (@4)
??4SymbolTable@icu_4_0@@QAEAAV01@ABV01@@Z ; has WINAPI (@4)
??4TrieWordDictionary@icu_4_0@@QAEAAV01@ABV01@@Z ; has WINAPI (@4)
??4UCharCharacterIterator@icu_4_0@@QAEAAV01@ABV01@@Z ; has WINAPI (@4)
??4UMemory@icu_4_0@@QAEAAV01@ABV01@@Z ; has WINAPI (@4)
??4UObject@icu_4_0@@QAEAAV01@ABV01@@Z ; has WINAPI (@4)
??4UStringEnumeration@icu_4_0@@QAEAAV01@ABV01@@Z ; has WINAPI (@4)
??4UnicodeFilter@icu_4_0@@QAEAAV01@ABV01@@Z ; has WINAPI (@4)
??4UnicodeFunctor@icu_4_0@@QAEAAV01@ABV01@@Z ; has WINAPI (@4)
??4UnicodeMatcher@icu_4_0@@QAEAAV01@ABV01@@Z ; has WINAPI (@4)
??4UnicodeSet@icu_4_0@@QAEAAV01@ABV01@@Z ; has WINAPI (@4)
??4UnicodeString@icu_4_0@@QAEAAV01@ABV01@@Z ; has WINAPI (@4)
??4UnicodeString@icu_4_0@@QAEAAV01@H@Z ; has WINAPI (@4)
??4UnicodeString@icu_4_0@@QAEAAV01@_W@Z ; has WINAPI (@4)
??8DateInterval@icu_4_0@@UBECABV01@@Z ; has WINAPI (@4)
??8Locale@icu_4_0@@QBECABV01@@Z ; has WINAPI (@4)
??8Normalizer@icu_4_0@@QBECABV01@@Z ; has WINAPI (@4)
??8ParsePosition@icu_4_0@@QBECABV01@@Z ; has WINAPI (@4)
??8RuleBasedBreakIterator@icu_4_0@@UBECABVBreakIterator@1@@Z ; has WINAPI (@4)
??8StringCharacterIterator@icu_4_0@@UBECABVForwardCharacterIterator@1@@Z ; has WINAPI (@4)
??8StringEnumeration@icu_4_0@@UBECABV01@@Z ; has WINAPI (@4)
??8UCharCharacterIterator@icu_4_0@@UBECABVForwardCharacterIterator@1@@Z ; has WINAPI (@4)
??8UVector32@icu_4_0@@QAECABV01@@Z ; has WINAPI (@4)
??8UVector@icu_4_0@@QAECABV01@@Z ; has WINAPI (@4)
??8UnicodeSet@icu_4_0@@UBECABV01@@Z ; has WINAPI (@4)
??8UnicodeString@icu_4_0@@QBECABV01@@Z ; has WINAPI (@4)
??9BreakIterator@icu_4_0@@QBECABV01@@Z ; has WINAPI (@4)
??9DateInterval@icu_4_0@@QBECABV01@@Z ; has WINAPI (@4)
??9ForwardCharacterIterator@icu_4_0@@QBECABV01@@Z ; has WINAPI (@4)
??9Locale@icu_4_0@@QBECABV01@@Z ; has WINAPI (@4)
??9Normalizer@icu_4_0@@QBECABV01@@Z ; has WINAPI (@4)
??9ParsePosition@icu_4_0@@QBECABV01@@Z ; has WINAPI (@4)
??9RuleBasedBreakIterator@icu_4_0@@QBECABVBreakIterator@1@@Z ; has WINAPI (@4)
??9StringEnumeration@icu_4_0@@UBECABV01@@Z ; has WINAPI (@4)
??9UVector32@icu_4_0@@QAECABV01@@Z ; has WINAPI (@4)
??9UVector@icu_4_0@@QAECABV01@@Z ; has WINAPI (@4)
??9UnicodeSet@icu_4_0@@QBECABV01@@Z ; has WINAPI (@4)
??9UnicodeString@icu_4_0@@QBECABV01@@Z ; has WINAPI (@4)
??AUVector@icu_4_0@@QBEPAXH@Z ; has WINAPI (@4)
??AUnicodeString@icu_4_0@@QBE_WH@Z ; has WINAPI (@4)
??BCharString@icu_4_0@@QBEPBDXZ
??Hicu_4_0@@YA?AVUnicodeString@0@ABV10@0@Z
??MUnicodeString@icu_4_0@@QBECABV01@@Z ; has WINAPI (@4)
??NUnicodeString@icu_4_0@@QBECABV01@@Z ; has WINAPI (@4)
??OUnicodeString@icu_4_0@@QBECABV01@@Z ; has WINAPI (@4)
??PUnicodeString@icu_4_0@@QBECABV01@@Z ; has WINAPI (@4)
??YUnicodeString@icu_4_0@@QAEAAV01@ABV01@@Z ; has WINAPI (@4)
??YUnicodeString@icu_4_0@@QAEAAV01@H@Z ; has WINAPI (@4)
??YUnicodeString@icu_4_0@@QAEAAV01@_W@Z ; has WINAPI (@4)
??_7BreakIterator@icu_4_0@@6B@ DATA
??_7CanonicalIterator@icu_4_0@@6B@ DATA
??_7CharacterIterator@icu_4_0@@6B@ DATA
??_7CompactTrieDictionary@icu_4_0@@6B@ DATA
??_7DateInterval@icu_4_0@@6B@ DATA
??_7EventListener@icu_4_0@@6B@ DATA
??_7ForwardCharacterIterator@icu_4_0@@6B@ DATA
??_7ICULocaleService@icu_4_0@@6B@ DATA
??_7ICUNotifier@icu_4_0@@6B@ DATA
??_7ICUResourceBundleFactory@icu_4_0@@6B@ DATA
??_7ICUService@icu_4_0@@6B@ DATA
??_7ICUServiceFactory@icu_4_0@@6B@ DATA
??_7ICUServiceKey@icu_4_0@@6B@ DATA
??_7Locale@icu_4_0@@6B@ DATA
??_7LocaleKey@icu_4_0@@6B@ DATA
??_7LocaleKeyFactory@icu_4_0@@6B@ DATA
??_7MutableTrieDictionary@icu_4_0@@6B@ DATA
??_7Normalizer@icu_4_0@@6B@ DATA
??_7ParsePosition@icu_4_0@@6B@ DATA
??_7Replaceable@icu_4_0@@6B@ DATA
??_7ResourceBundle@icu_4_0@@6B@ DATA
??_7RuleBasedBreakIterator@icu_4_0@@6B@ DATA
??_7ServiceListener@icu_4_0@@6B@ DATA
??_7SimpleFactory@icu_4_0@@6B@ DATA
??_7SimpleLocaleKeyFactory@icu_4_0@@6B@ DATA
??_7StringCharacterIterator@icu_4_0@@6B@ DATA
??_7StringEnumeration@icu_4_0@@6B@ DATA
??_7SymbolTable@icu_4_0@@6B@ DATA
??_7TrieWordDictionary@icu_4_0@@6B@ DATA
??_7UCharCharacterIterator@icu_4_0@@6B@ DATA
??_7UObject@icu_4_0@@6B@ DATA
??_7UStack@icu_4_0@@6B@ DATA
??_7UStringEnumeration@icu_4_0@@6B@ DATA
??_7UVector32@icu_4_0@@6B@ DATA
??_7UVector@icu_4_0@@6B@ DATA
??_7UnicodeFilter@icu_4_0@@6BUnicodeFunctor@1@@ DATA
??_7UnicodeFilter@icu_4_0@@6BUnicodeMatcher@1@@ DATA
??_7UnicodeFunctor@icu_4_0@@6B@ DATA
??_7UnicodeMatcher@icu_4_0@@6B@ DATA
??_7UnicodeSet@icu_4_0@@6BUnicodeFunctor@1@@ DATA
??_7UnicodeSet@icu_4_0@@6BUnicodeMatcher@1@@ DATA
??_7UnicodeSetIterator@icu_4_0@@6B@ DATA
??_7UnicodeString@icu_4_0@@6B@ DATA
??_FMutex@icu_4_0@@QAEXXZ
??_UUMemory@icu_4_0@@SAPAXI@Z
??_VUMemory@icu_4_0@@SAXPAX@Z
?PREFIX_DELIMITER@ICUServiceKey@icu_4_0@@1_WB DATA
?_add@UnicodeSet@icu_4_0@@AAEXABVUnicodeString@2@@Z ; has WINAPI (@4)
?_appendToPat@UnicodeSet@icu_4_0@@CAXAAVUnicodeString@2@ABV32@C@Z
?_appendToPat@UnicodeSet@icu_4_0@@CAXAAVUnicodeString@2@HC@Z
?_generatePattern@UnicodeSet@icu_4_0@@ABEAAVUnicodeString@2@AAV32@C@Z ; has WINAPI (@8)
?_init@UVector32@icu_4_0@@AAEXHAAW4UErrorCode@@@Z ; has WINAPI (@8)
?_init@UVector@icu_4_0@@AAEXHAAW4UErrorCode@@@Z ; has WINAPI (@8)
?_toPattern@UnicodeSet@icu_4_0@@ABEAAVUnicodeString@2@AAV32@C@Z ; has WINAPI (@8)
?acceptsListener@ICUService@icu_4_0@@MBECABVEventListener@2@@Z ; has WINAPI (@4)
?add@UnicodeSet@icu_4_0@@AAEXPBHHC@Z ; has WINAPI (@12)
?add@UnicodeSet@icu_4_0@@QAEAAV12@ABVUnicodeString@2@@Z ; has WINAPI (@4)
?add@UnicodeSet@icu_4_0@@QAEAAV12@H@Z ; has WINAPI (@4)
?add@UnicodeSet@icu_4_0@@UAEAAV12@HH@Z ; has WINAPI (@8)
?addAll@UnicodeSet@icu_4_0@@QAEAAV12@ABVUnicodeString@2@@Z ; has WINAPI (@4)
?addAll@UnicodeSet@icu_4_0@@UAEAAV12@ABV12@@Z ; has WINAPI (@4)
?addElement@UVector32@icu_4_0@@QAEXHAAW4UErrorCode@@@Z ; has WINAPI (@8)
?addElement@UVector@icu_4_0@@QAEXHAAW4UErrorCode@@@Z ; has WINAPI (@8)
?addElement@UVector@icu_4_0@@QAEXPAXAAW4UErrorCode@@@Z ; has WINAPI (@8)
?addListener@ICUNotifier@icu_4_0@@UAEXPBVEventListener@2@AAW4UErrorCode@@@Z ; has WINAPI (@8)
?addMatchSetTo@UnicodeSet@icu_4_0@@UBEXAAV12@@Z ; Check!!! Couldn't determine function argument count. Function doesn't return. 
?addRef@UnicodeString@icu_4_0@@AAEXXZ
?addWord@MutableTrieDictionary@icu_4_0@@UAEXPB_WHAAW4UErrorCode@@@Z ; has WINAPI (@12)
?adoptText@RuleBasedBreakIterator@icu_4_0@@UAEXPAVCharacterIterator@2@@Z ; has WINAPI (@4)
?allocate@UnicodeString@icu_4_0@@AAECH@Z ; has WINAPI (@4)
?allocateStrings@UnicodeSet@icu_4_0@@AAECAAW4UErrorCode@@@Z ; has WINAPI (@4)
?append@UnicodeString@icu_4_0@@QAEAAV12@ABV12@@Z ; has WINAPI (@4)
?append@UnicodeString@icu_4_0@@QAEAAV12@ABV12@HH@Z ; has WINAPI (@12)
?append@UnicodeString@icu_4_0@@QAEAAV12@H@Z ; has WINAPI (@4)
?append@UnicodeString@icu_4_0@@QAEAAV12@PB_WH@Z ; has WINAPI (@8)
?append@UnicodeString@icu_4_0@@QAEAAV12@PB_WHH@Z ; has WINAPI (@12)
?append@UnicodeString@icu_4_0@@QAEAAV12@_W@Z ; has WINAPI (@4)
?appendNumber@ICU_Utility@icu_4_0@@SAAAVUnicodeString@2@AAV32@HHH@Z
?appendToRule@ICU_Utility@icu_4_0@@SAXAAVUnicodeString@2@ABV32@CC0@Z
?appendToRule@ICU_Utility@icu_4_0@@SAXAAVUnicodeString@2@HCC0@Z
?appendToRule@ICU_Utility@icu_4_0@@SAXAAVUnicodeString@2@PBVUnicodeMatcher@2@C0@Z
?applyFilter@UnicodeSet@icu_4_0@@AAEXP6ACHPAX@Z0HAAW4UErrorCode@@@Z ; has WINAPI (@16)
?applyIntPropertyValue@UnicodeSet@icu_4_0@@QAEAAV12@W4UProperty@@HAAW4UErrorCode@@@Z ; has WINAPI (@12)
?applyPattern@UnicodeSet@icu_4_0@@AAEXAAVRuleCharacterIterator@2@PBVSymbolTable@2@AAVUnicodeString@2@IAAW4UErrorCode@@@Z ; has WINAPI (@20)
?applyPattern@UnicodeSet@icu_4_0@@QAEAAV12@ABVUnicodeString@2@AAVParsePosition@2@IPBVSymbolTable@2@AAW4UErrorCode@@@Z ; has WINAPI (@20)
?applyPattern@UnicodeSet@icu_4_0@@QAEAAV12@ABVUnicodeString@2@AAW4UErrorCode@@@Z ; has WINAPI (@8)
?applyPattern@UnicodeSet@icu_4_0@@QAEAAV12@ABVUnicodeString@2@IPBVSymbolTable@2@AAW4UErrorCode@@@Z ; has WINAPI (@16)
?applyPropertyAlias@UnicodeSet@icu_4_0@@QAEAAV12@ABVUnicodeString@2@0AAW4UErrorCode@@@Z ; has WINAPI (@12)
?applyPropertyPattern@UnicodeSet@icu_4_0@@AAEAAV12@ABVUnicodeString@2@AAVParsePosition@2@AAW4UErrorCode@@@Z ; has WINAPI (@12)
?applyPropertyPattern@UnicodeSet@icu_4_0@@AAEXAAVRuleCharacterIterator@2@AAVUnicodeString@2@AAW4UErrorCode@@@Z ; has WINAPI (@12)
?assign@UVector32@icu_4_0@@QAEXABV12@AAW4UErrorCode@@@Z ; has WINAPI (@8)
?assign@UVector@icu_4_0@@QAEXABV12@P6AXPATUHashTok@@1@ZAAW4UErrorCode@@@Z ; has WINAPI (@12)
?buildInstance@BreakIterator@icu_4_0@@CAPAV12@ABVLocale@2@PBDHAAW4UErrorCode@@@Z
?canonicalID@ICUServiceKey@icu_4_0@@UBEAAVUnicodeString@2@AAV32@@Z ; has WINAPI (@4)
?canonicalID@LocaleKey@icu_4_0@@UBEAAVUnicodeString@2@AAV32@@Z ; has WINAPI (@4)
?canonicalLocale@LocaleKey@icu_4_0@@UBEAAVLocale@2@AAV32@@Z ; has WINAPI (@4)
?canonicalLocaleString@LocaleUtility@icu_4_0@@SAAAVUnicodeString@2@PBV32@AAV32@@Z
?caseCompare@UnicodeString@icu_4_0@@QBECABV12@I@Z ; has WINAPI (@8)
?caseCompare@UnicodeString@icu_4_0@@QBECHHABV12@HHI@Z ; has WINAPI (@24)
?caseCompare@UnicodeString@icu_4_0@@QBECHHABV12@I@Z ; has WINAPI (@16)
?caseCompare@UnicodeString@icu_4_0@@QBECHHPB_WHHI@Z ; has WINAPI (@24)
?caseCompare@UnicodeString@icu_4_0@@QBECHHPB_WI@Z ; has WINAPI (@16)
?caseCompare@UnicodeString@icu_4_0@@QBECPB_WHI@Z ; has WINAPI (@12)
?caseCompareBetween@UnicodeString@icu_4_0@@QBECHHABV12@HHI@Z ; has WINAPI (@24)
?caseMap@UnicodeString@icu_4_0@@AAEAAV12@PAVBreakIterator@2@PBDIH@Z ; has WINAPI (@16)
?char32At@Replaceable@icu_4_0@@QBEHH@Z ; Check!!! Couldn't determine function argument count. Function doesn't return. 
?char32At@UnicodeString@icu_4_0@@QBEHH@Z ; has WINAPI (@4)
?charAt@Replaceable@icu_4_0@@QBE_WH@Z ; Check!!! Couldn't determine function argument count. Function doesn't return. 
?charAt@UnicodeSet@icu_4_0@@QBEHH@Z ; has WINAPI (@4)
?charAt@UnicodeString@icu_4_0@@QBE_WH@Z ; has WINAPI (@4)
?checkDictionary@RuleBasedBreakIterator@icu_4_0@@IAEHHHC@Z ; has WINAPI (@12)
?cleanPieces@CanonicalIterator@icu_4_0@@AAEXXZ
?clear@UnicodeSet@icu_4_0@@UAEAAV12@XZ
?clearBuffer@Normalizer@icu_4_0@@AAEXXZ
?clearCaches@ICUService@icu_4_0@@MAEXXZ
?clearServiceCache@ICUService@icu_4_0@@IAEXXZ
?clone@DateInterval@icu_4_0@@UBEPAV12@XZ
?clone@Locale@icu_4_0@@QBEPAV12@XZ
?clone@Normalizer@icu_4_0@@QBEPAV12@XZ
?clone@ParsePosition@icu_4_0@@QBEPAV12@XZ
?clone@Replaceable@icu_4_0@@UBEPAV12@XZ
?clone@ResourceBundle@icu_4_0@@QBEPAV12@XZ
?clone@RuleBasedBreakIterator@icu_4_0@@UBEPAVBreakIterator@2@XZ
?clone@StringCharacterIterator@icu_4_0@@UBEPAVCharacterIterator@2@XZ
?clone@StringEnumeration@icu_4_0@@UBEPAV12@XZ
?clone@UCharCharacterIterator@icu_4_0@@UBEPAVCharacterIterator@2@XZ
?clone@UnicodeSet@icu_4_0@@UBEPAVUnicodeFunctor@2@XZ
?clone@UnicodeString@icu_4_0@@UBEPAVReplaceable@2@XZ
?cloneArrayIfNeeded@UnicodeString@icu_4_0@@AAECHHCPAPAHC@Z ; has WINAPI (@20)
?cloneAsThawed@UnicodeSet@icu_4_0@@QBEPAVUnicodeFunctor@2@XZ
?cloneMutable@CompactTrieDictionary@icu_4_0@@UBEPAVMutableTrieDictionary@2@AAW4UErrorCode@@@Z ; has WINAPI (@4)
?closeOver@UnicodeSet@icu_4_0@@QAEAAV12@H@Z ; has WINAPI (@4)
?compact@UnicodeSet@icu_4_0@@UAEAAV12@XZ
?compactMutableTrieDictionary@CompactTrieDictionary@icu_4_0@@CAPAUCompactTrieHeader@2@ABVMutableTrieDictionary@2@AAW4UErrorCode@@@Z
?compare@Normalizer@icu_4_0@@SAHABVUnicodeString@2@0IAAW4UErrorCode@@@Z
?compare@UnicodeString@icu_4_0@@QBECABV12@@Z ; has WINAPI (@4)
?compare@UnicodeString@icu_4_0@@QBECHHABV12@@Z ; has WINAPI (@12)
?compare@UnicodeString@icu_4_0@@QBECHHABV12@HH@Z ; has WINAPI (@20)
?compare@UnicodeString@icu_4_0@@QBECHHPB_W@Z ; has WINAPI (@12)
?compare@UnicodeString@icu_4_0@@QBECHHPB_WHH@Z ; has WINAPI (@20)
?compare@UnicodeString@icu_4_0@@QBECPB_WH@Z ; has WINAPI (@8)
?compareBetween@UnicodeString@icu_4_0@@QBECHHABV12@HH@Z ; has WINAPI (@20)
?compareCodePointOrder@UnicodeString@icu_4_0@@QBECABV12@@Z ; has WINAPI (@4)
?compareCodePointOrder@UnicodeString@icu_4_0@@QBECHHABV12@@Z ; has WINAPI (@12)
?compareCodePointOrder@UnicodeString@icu_4_0@@QBECHHABV12@HH@Z ; has WINAPI (@20)
?compareCodePointOrder@UnicodeString@icu_4_0@@QBECHHPB_W@Z ; has WINAPI (@12)
?compareCodePointOrder@UnicodeString@icu_4_0@@QBECHHPB_WHH@Z ; has WINAPI (@20)
?compareCodePointOrder@UnicodeString@icu_4_0@@QBECPB_WH@Z ; has WINAPI (@8)
?compareCodePointOrderBetween@UnicodeString@icu_4_0@@QBECHHABV12@HH@Z ; has WINAPI (@20)
?complement@UnicodeSet@icu_4_0@@QAEAAV12@ABVUnicodeString@2@@Z ; has WINAPI (@4)
?complement@UnicodeSet@icu_4_0@@QAEAAV12@H@Z ; has WINAPI (@4)
?complement@UnicodeSet@icu_4_0@@UAEAAV12@HH@Z ; has WINAPI (@8)
?complement@UnicodeSet@icu_4_0@@UAEAAV12@XZ
?complementAll@UnicodeSet@icu_4_0@@QAEAAV12@ABVUnicodeString@2@@Z ; has WINAPI (@4)
?complementAll@UnicodeSet@icu_4_0@@UAEAAV12@ABV12@@Z ; has WINAPI (@4)
?compose@Normalizer@icu_4_0@@SAXABVUnicodeString@2@CHAAV32@AAW4UErrorCode@@@Z
?concatenate@Normalizer@icu_4_0@@SAAAVUnicodeString@2@AAV32@00W4UNormalizationMode@@HAAW4UErrorCode@@@Z
?constructForLocale@ResourceBundle@icu_4_0@@AAEXABVUnicodeString@2@ABVLocale@2@AAW4UErrorCode@@@Z ; has WINAPI (@12)
?contains@UVector32@icu_4_0@@QBECH@Z ; has WINAPI (@4)
?contains@UVector@icu_4_0@@QBECH@Z ; has WINAPI (@4)
?contains@UVector@icu_4_0@@QBECPAX@Z ; has WINAPI (@4)
?contains@UnicodeSet@icu_4_0@@QBECABVUnicodeString@2@@Z ; has WINAPI (@4)
?contains@UnicodeSet@icu_4_0@@UBECH@Z ; has WINAPI (@4)
?contains@UnicodeSet@icu_4_0@@UBECHH@Z ; has WINAPI (@8)
?containsAll@UVector32@icu_4_0@@QBECABV12@@Z ; has WINAPI (@4)
?containsAll@UVector@icu_4_0@@QBECABV12@@Z ; has WINAPI (@4)
?containsAll@UnicodeSet@icu_4_0@@QBECABVUnicodeString@2@@Z ; has WINAPI (@4)
?containsAll@UnicodeSet@icu_4_0@@UBECABV12@@Z ; has WINAPI (@4)
?containsNone@UVector32@icu_4_0@@QBECABV12@@Z ; has WINAPI (@4)
?containsNone@UVector@icu_4_0@@QBECABV12@@Z ; has WINAPI (@4)
?containsNone@UnicodeSet@icu_4_0@@QBECABV12@@Z ; has WINAPI (@4)
?containsNone@UnicodeSet@icu_4_0@@QBECABVUnicodeString@2@@Z ; has WINAPI (@4)
?containsNone@UnicodeSet@icu_4_0@@QBECHH@Z ; has WINAPI (@8)
?containsSome@UnicodeSet@icu_4_0@@QBECABV12@@Z ; has WINAPI (@4)
?containsSome@UnicodeSet@icu_4_0@@QBECABVUnicodeString@2@@Z ; has WINAPI (@4)
?containsSome@UnicodeSet@icu_4_0@@QBECHH@Z ; has WINAPI (@8)
?copy@UnicodeString@icu_4_0@@UAEXHHH@Z ; has WINAPI (@12)
?copyFrom@UnicodeString@icu_4_0@@AAEAAV12@ABV12@C@Z ; has WINAPI (@8)
?count@Hashtable@icu_4_0@@QBEHXZ
?count@UStringEnumeration@icu_4_0@@UBEHAAW4UErrorCode@@@Z ; has WINAPI (@4)
?countChar32@UnicodeString@icu_4_0@@QBEHHH@Z ; has WINAPI (@8)
?countFactories@ICUService@icu_4_0@@IBEHXZ
?create@LocaleKeyFactory@icu_4_0@@UBEPAVUObject@2@ABVICUServiceKey@2@PBVICUService@2@AAW4UErrorCode@@@Z ; has WINAPI (@12)
?create@SimpleFactory@icu_4_0@@UBEPAVUObject@2@ABVICUServiceKey@2@PBVICUService@2@AAW4UErrorCode@@@Z ; has WINAPI (@12)
?create@SimpleLocaleKeyFactory@icu_4_0@@UBEPAVUObject@2@ABVICUServiceKey@2@PBVICUService@2@AAW4UErrorCode@@@Z ; has WINAPI (@12)
?create@StringPair@icu_4_0@@SAPAV12@ABVUnicodeString@2@0AAW4UErrorCode@@@Z
?createBufferClone@RuleBasedBreakIterator@icu_4_0@@UAEPAVBreakIterator@2@PAXAAHAAW4UErrorCode@@@Z ; has WINAPI (@12)
?createCanonical@Locale@icu_4_0@@SA?AV12@PBD@Z
?createCharacterInstance@BreakIterator@icu_4_0@@SAPAV12@ABVLocale@2@AAW4UErrorCode@@@Z
?createFrom@UnicodeSet@icu_4_0@@SAPAV12@ABVUnicodeString@2@@Z
?createFromAll@UnicodeSet@icu_4_0@@SAPAV12@ABVUnicodeString@2@@Z
?createFromName@Locale@icu_4_0@@SA?AV12@PBD@Z
?createInstance@BreakIterator@icu_4_0@@CAPAV12@ABVLocale@2@HAAW4UErrorCode@@@Z
?createKey@ICULocaleService@icu_4_0@@MBEPAVICUServiceKey@2@PBVUnicodeString@2@AAW4UErrorCode@@@Z ; has WINAPI (@8)
?createKey@ICULocaleService@icu_4_0@@MBEPAVICUServiceKey@2@PBVUnicodeString@2@HAAW4UErrorCode@@@Z ; has WINAPI (@12)
?createKey@ICUService@icu_4_0@@UBEPAVICUServiceKey@2@PBVUnicodeString@2@AAW4UErrorCode@@@Z ; has WINAPI (@8)
?createKeywords@Locale@icu_4_0@@QBEPAVStringEnumeration@2@AAW4UErrorCode@@@Z ; has WINAPI (@4)
?createLineInstance@BreakIterator@icu_4_0@@SAPAV12@ABVLocale@2@AAW4UErrorCode@@@Z
?createSentenceInstance@BreakIterator@icu_4_0@@SAPAV12@ABVLocale@2@AAW4UErrorCode@@@Z
?createSimpleFactory@ICUService@icu_4_0@@MAEPAVICUServiceFactory@2@PAVUObject@2@ABVUnicodeString@2@CAAW4UErrorCode@@@Z ; has WINAPI (@16)
?createTitleInstance@BreakIterator@icu_4_0@@SAPAV12@ABVLocale@2@AAW4UErrorCode@@@Z
?createWithCanonicalFallback@LocaleKey@icu_4_0@@SAPAV12@PBVUnicodeString@2@0AAW4UErrorCode@@@Z
?createWithCanonicalFallback@LocaleKey@icu_4_0@@SAPAV12@PBVUnicodeString@2@0HAAW4UErrorCode@@@Z
?createWordInstance@BreakIterator@icu_4_0@@SAPAV12@ABVLocale@2@AAW4UErrorCode@@@Z
?current32@UCharCharacterIterator@icu_4_0@@UBEHXZ
?current@Normalizer@icu_4_0@@QAEHXZ
?current@RuleBasedBreakIterator@icu_4_0@@UBEHXZ
?current@UCharCharacterIterator@icu_4_0@@UBE_WXZ
?currentDescriptor@ICUServiceKey@icu_4_0@@UBEAAVUnicodeString@2@AAV32@@Z ; has WINAPI (@4)
?currentDescriptor@LocaleKey@icu_4_0@@UBEAAVUnicodeString@2@AAV32@@Z ; has WINAPI (@4)
?currentID@ICUServiceKey@icu_4_0@@UBEAAVUnicodeString@2@AAV32@@Z ; Check!!! Couldn't determine function argument count. Function doesn't return. 
?currentID@LocaleKey@icu_4_0@@UBEAAVUnicodeString@2@AAV32@@Z ; has WINAPI (@4)
?currentLocale@LocaleKey@icu_4_0@@UBEAAVLocale@2@AAV32@@Z ; has WINAPI (@4)
?data@CompactTrieDictionary@icu_4_0@@UBEPBXXZ
?dataSize@CompactTrieDictionary@icu_4_0@@UBEIXZ
?decompose@Normalizer@icu_4_0@@SAXABVUnicodeString@2@CHAAV32@AAW4UErrorCode@@@Z
?doCaseCompare@UnicodeString@icu_4_0@@ABECHHABV12@HHI@Z ; has WINAPI (@24)
?doCaseCompare@UnicodeString@icu_4_0@@ABECHHPB_WHHI@Z ; has WINAPI (@24)
?doCharAt@UnicodeString@icu_4_0@@ABE_WH@Z ; has WINAPI (@4)
?doCodepageCreate@UnicodeString@icu_4_0@@AAEXPBDH0@Z ; has WINAPI (@12)
?doCodepageCreate@UnicodeString@icu_4_0@@AAEXPBDHPAUUConverter@@AAW4UErrorCode@@@Z ; has WINAPI (@16)
?doCompare@UnicodeString@icu_4_0@@ABECHHABV12@HH@Z ; has WINAPI (@20)
?doCompare@UnicodeString@icu_4_0@@ABECHHPB_WHH@Z ; has WINAPI (@20)
?doCompareCodePointOrder@UnicodeString@icu_4_0@@ABECHHABV12@HH@Z ; has WINAPI (@20)
?doCompareCodePointOrder@UnicodeString@icu_4_0@@ABECHHPB_WHH@Z ; has WINAPI (@20)
?doExtract@UnicodeString@icu_4_0@@ABEHHHPADHPAUUConverter@@AAW4UErrorCode@@@Z ; has WINAPI (@24)
?doExtract@UnicodeString@icu_4_0@@ABEXHHAAV12@@Z ; has WINAPI (@12)
?doExtract@UnicodeString@icu_4_0@@ABEXHHPA_WH@Z ; has WINAPI (@16)
?doHashCode@UnicodeString@icu_4_0@@ABEHXZ
?doIndexOf@UnicodeString@icu_4_0@@ABEHHHH@Z ; has WINAPI (@12)
?doIndexOf@UnicodeString@icu_4_0@@ABEH_WHH@Z ; has WINAPI (@12)
?doLastIndexOf@UnicodeString@icu_4_0@@ABEHHHH@Z ; has WINAPI (@12)
?doLastIndexOf@UnicodeString@icu_4_0@@ABEH_WHH@Z ; has WINAPI (@12)
?doReplace@UnicodeString@icu_4_0@@AAEAAV12@HHABV12@HH@Z ; has WINAPI (@20)
?doReplace@UnicodeString@icu_4_0@@AAEAAV12@HHPB_WHH@Z ; has WINAPI (@20)
?doReverse@UnicodeString@icu_4_0@@AAEAAV12@HH@Z ; has WINAPI (@8)
?elementAt@UVector@icu_4_0@@QBEPAXH@Z ; has WINAPI (@4)
?elementAti@UVector32@icu_4_0@@QBEHH@Z ; has WINAPI (@4)
?elementAti@UVector@icu_4_0@@QBEHH@Z ; has WINAPI (@4)
?empty@UStack@icu_4_0@@QBECXZ
?empty@UVector32@icu_4_0@@QBECXZ
?endIndex@CharacterIterator@icu_4_0@@QBEHXZ
?endIndex@Normalizer@icu_4_0@@QBEHXZ
?endsWith@UnicodeString@icu_4_0@@QBECABV12@@Z ; has WINAPI (@4)
?endsWith@UnicodeString@icu_4_0@@QBECABV12@HH@Z ; has WINAPI (@12)
?endsWith@UnicodeString@icu_4_0@@QBECPB_WH@Z ; has WINAPI (@8)
?endsWith@UnicodeString@icu_4_0@@QBECPB_WHH@Z ; has WINAPI (@12)
?ensureBufferCapacity@UnicodeSet@icu_4_0@@AAEXHAAW4UErrorCode@@@Z ; has WINAPI (@8)
?ensureCapacity@UVector32@icu_4_0@@QAECHAAW4UErrorCode@@@Z ; has WINAPI (@8)
?ensureCapacity@UVector@icu_4_0@@QAECHAAW4UErrorCode@@@Z ; has WINAPI (@8)
?ensureCapacity@UnicodeSet@icu_4_0@@AAEXHAAW4UErrorCode@@@Z ; has WINAPI (@8)
?ensureCharsCapacity@StringEnumeration@icu_4_0@@IAEXHAAW4UErrorCode@@@Z ; has WINAPI (@8)
?equals@Hashtable@icu_4_0@@QBECABV12@@Z ; has WINAPI (@4)
?equals@UVector32@icu_4_0@@QBECABV12@@Z ; has WINAPI (@4)
?equals@UVector@icu_4_0@@QBECABV12@@Z ; has WINAPI (@4)
?escapeUnprintable@ICU_Utility@icu_4_0@@SACAAVUnicodeString@2@H@Z
?exclusiveOr@UnicodeSet@icu_4_0@@AAEXPBHHC@Z ; has WINAPI (@12)
?expandCapacity@UVector32@icu_4_0@@QAECHAAW4UErrorCode@@@Z ; has WINAPI (@8)
?extract@CanonicalIterator@icu_4_0@@AAEPAVHashtable@2@PAV32@HPB_WHHAAW4UErrorCode@@@Z ; has WINAPI (@24)
?extract@UnicodeString@icu_4_0@@QBEHHHPADHW4EInvariant@12@@Z ; has WINAPI (@20)
?extract@UnicodeString@icu_4_0@@QBEHHHPADIPBD@Z ; has WINAPI (@20)
?extract@UnicodeString@icu_4_0@@QBEHHHPADPBD@Z ; has WINAPI (@16)
?extract@UnicodeString@icu_4_0@@QBEHPADHPAUUConverter@@AAW4UErrorCode@@@Z ; has WINAPI (@16)
?extract@UnicodeString@icu_4_0@@QBEHPA_WHAAW4UErrorCode@@@Z ; has WINAPI (@12)
?extract@UnicodeString@icu_4_0@@QBEXHHAAV12@@Z ; has WINAPI (@12)
?extract@UnicodeString@icu_4_0@@QBEXHHPA_WH@Z ; has WINAPI (@16)
?extractBetween@UnicodeString@icu_4_0@@QBEXHHPA_WH@Z ; has WINAPI (@16)
?extractBetween@UnicodeString@icu_4_0@@UBEXHHAAV12@@Z ; has WINAPI (@12)
?fallback@ICUServiceKey@icu_4_0@@UAECXZ
?fallback@LocaleKey@icu_4_0@@UAECXZ
?fastCopyFrom@UnicodeString@icu_4_0@@QAEAAV12@ABV12@@Z ; has WINAPI (@4)
?find@Hashtable@icu_4_0@@QBEPBUUHashElement@@ABVUnicodeString@2@@Z ; has WINAPI (@4)
?findAndReplace@UnicodeString@icu_4_0@@QAEAAV12@ABV12@0@Z ; has WINAPI (@8)
?findAndReplace@UnicodeString@icu_4_0@@QAEAAV12@HHABV12@0@Z ; has WINAPI (@16)
?findAndReplace@UnicodeString@icu_4_0@@QAEAAV12@HHABV12@HH0HH@Z ; has WINAPI (@32)
?findCodePoint@UnicodeSet@icu_4_0@@ABEHH@Z ; has WINAPI (@4)
?first32@UCharCharacterIterator@icu_4_0@@UAEHXZ
?first32PostInc@CharacterIterator@icu_4_0@@UAEHXZ ; Check!!! Couldn't determine function argument count. Function doesn't return. 
?first32PostInc@UCharCharacterIterator@icu_4_0@@UAEHXZ
?first@Normalizer@icu_4_0@@QAEHXZ
?first@RuleBasedBreakIterator@icu_4_0@@UAEHXZ
?first@UCharCharacterIterator@icu_4_0@@UAE_WXZ
?firstElement@UVector@icu_4_0@@QBEPAXXZ
?firstPostInc@CharacterIterator@icu_4_0@@UAE_WXZ ; Check!!! Couldn't determine function argument count. Function doesn't return. 
?firstPostInc@UCharCharacterIterator@icu_4_0@@UAE_WXZ
?foldCase@UnicodeString@icu_4_0@@QAEAAV12@I@Z ; has WINAPI (@4)
?following@RuleBasedBreakIterator@icu_4_0@@UAEHH@Z ; has WINAPI (@4)
?freeze@UnicodeSet@icu_4_0@@QAEPAVUnicodeFunctor@2@XZ
?get@Hashtable@icu_4_0@@QBEPAXABVUnicodeString@2@@Z ; has WINAPI (@4)
?get@ICULocaleService@icu_4_0@@QBEPAVUObject@2@ABVLocale@2@AAW4UErrorCode@@@Z ; has WINAPI (@8)
?get@ICULocaleService@icu_4_0@@QBEPAVUObject@2@ABVLocale@2@HAAW4UErrorCode@@@Z ; has WINAPI (@12)
?get@ICULocaleService@icu_4_0@@QBEPAVUObject@2@ABVLocale@2@HPAV42@AAW4UErrorCode@@@Z ; has WINAPI (@16)
?get@ICULocaleService@icu_4_0@@QBEPAVUObject@2@ABVLocale@2@PAV42@AAW4UErrorCode@@@Z ; has WINAPI (@12)
?get@ICUService@icu_4_0@@QBEPAVUObject@2@ABVUnicodeString@2@AAW4UErrorCode@@@Z ; has WINAPI (@8)
?get@ICUService@icu_4_0@@QBEPAVUObject@2@ABVUnicodeString@2@PAV42@AAW4UErrorCode@@@Z ; has WINAPI (@12)
?get@ResourceBundle@icu_4_0@@QBE?AV12@HAAW4UErrorCode@@@Z ; has WINAPI (@12)
?get@ResourceBundle@icu_4_0@@QBE?AV12@PBDAAW4UErrorCode@@@Z ; has WINAPI (@12)
?getArrayStart@UnicodeString@icu_4_0@@AAEPA_WXZ
?getArrayStart@UnicodeString@icu_4_0@@ABEPB_WXZ
?getAvailableLocaleNames@LocaleUtility@icu_4_0@@SAPBVHashtable@2@ABVUnicodeString@2@@Z
?getAvailableLocales@BreakIterator@icu_4_0@@SAPAVStringEnumeration@2@XZ
?getAvailableLocales@BreakIterator@icu_4_0@@SAPBVLocale@2@AAH@Z
?getAvailableLocales@ICULocaleService@icu_4_0@@UBEPAVStringEnumeration@2@XZ
?getAvailableLocales@Locale@icu_4_0@@SAPBV12@AAH@Z
?getBaseName@Locale@icu_4_0@@QBEPBDXZ
?getBinary@ResourceBundle@icu_4_0@@QBEPBEAAHAAW4UErrorCode@@@Z ; has WINAPI (@8)
?getBinaryRules@RuleBasedBreakIterator@icu_4_0@@UAEPBEAAI@Z ; has WINAPI (@4)
?getBuffer@UVector32@icu_4_0@@QBEPAHXZ
?getBuffer@UnicodeString@icu_4_0@@QAEPA_WH@Z ; has WINAPI (@4)
?getBuffer@UnicodeString@icu_4_0@@QBEPB_WXZ
?getCanada@Locale@icu_4_0@@SAABV12@XZ
?getCanadaFrench@Locale@icu_4_0@@SAABV12@XZ
?getCapacity@UnicodeString@icu_4_0@@QBEHXZ
?getChar32At@UnicodeString@icu_4_0@@MBEHH@Z ; has WINAPI (@4)
?getChar32Limit@UnicodeString@icu_4_0@@QBEHH@Z ; has WINAPI (@4)
?getChar32Start@UnicodeString@icu_4_0@@QBEHH@Z ; has WINAPI (@4)
?getCharAt@UnicodeString@icu_4_0@@MBE_WH@Z ; has WINAPI (@4)
?getChina@Locale@icu_4_0@@SAABV12@XZ
?getChinese@Locale@icu_4_0@@SAABV12@XZ
?getCodepoint@UnicodeSetIterator@icu_4_0@@QBEHXZ
?getCodepointEnd@UnicodeSetIterator@icu_4_0@@QBEHXZ
?getCountry@Locale@icu_4_0@@QBEPBDXZ
?getDefault@Locale@icu_4_0@@SAABV12@XZ
?getDisplayCountry@Locale@icu_4_0@@QBEAAVUnicodeString@2@AAV32@@Z ; has WINAPI (@4)
?getDisplayCountry@Locale@icu_4_0@@QBEAAVUnicodeString@2@ABV12@AAV32@@Z ; has WINAPI (@8)
?getDisplayLanguage@Locale@icu_4_0@@QBEAAVUnicodeString@2@AAV32@@Z ; has WINAPI (@4)
?getDisplayLanguage@Locale@icu_4_0@@QBEAAVUnicodeString@2@ABV12@AAV32@@Z ; has WINAPI (@8)
?getDisplayName@BreakIterator@icu_4_0@@SAAAVUnicodeString@2@ABVLocale@2@0AAV32@@Z
?getDisplayName@BreakIterator@icu_4_0@@SAAAVUnicodeString@2@ABVLocale@2@AAV32@@Z
?getDisplayName@ICUService@icu_4_0@@QBEAAVUnicodeString@2@ABV32@AAV32@@Z ; has WINAPI (@8)
?getDisplayName@ICUService@icu_4_0@@QBEAAVUnicodeString@2@ABV32@AAV32@ABVLocale@2@@Z ; has WINAPI (@12)
?getDisplayName@Locale@icu_4_0@@QBEAAVUnicodeString@2@AAV32@@Z ; has WINAPI (@4)
?getDisplayName@Locale@icu_4_0@@QBEAAVUnicodeString@2@ABV12@AAV32@@Z ; has WINAPI (@8)
?getDisplayName@LocaleKeyFactory@icu_4_0@@UBEAAVUnicodeString@2@ABV32@ABVLocale@2@AAV32@@Z ; has WINAPI (@12)
?getDisplayName@SimpleFactory@icu_4_0@@UBEAAVUnicodeString@2@ABV32@ABVLocale@2@AAV32@@Z ; has WINAPI (@12)
?getDisplayNames@ICUService@icu_4_0@@QBEAAVUVector@2@AAV32@AAW4UErrorCode@@@Z ; has WINAPI (@8)
?getDisplayNames@ICUService@icu_4_0@@QBEAAVUVector@2@AAV32@ABVLocale@2@AAW4UErrorCode@@@Z ; has WINAPI (@12)
?getDisplayNames@ICUService@icu_4_0@@QBEAAVUVector@2@AAV32@ABVLocale@2@PBVUnicodeString@2@AAW4UErrorCode@@@Z ; has WINAPI (@16)
?getDisplayScript@Locale@icu_4_0@@QBEAAVUnicodeString@2@AAV32@@Z ; has WINAPI (@4)
?getDisplayScript@Locale@icu_4_0@@QBEAAVUnicodeString@2@ABV12@AAV32@@Z ; has WINAPI (@8)
?getDisplayVariant@Locale@icu_4_0@@QBEAAVUnicodeString@2@AAV32@@Z ; has WINAPI (@4)
?getDisplayVariant@Locale@icu_4_0@@QBEAAVUnicodeString@2@ABV12@AAV32@@Z ; has WINAPI (@8)
?getDynamicClassID@CanonicalIterator@icu_4_0@@UBEPAXXZ
?getDynamicClassID@DateInterval@icu_4_0@@UBEPAXXZ
?getDynamicClassID@EventListener@icu_4_0@@UBEPAXXZ
?getDynamicClassID@ICUResourceBundleFactory@icu_4_0@@UBEPAXXZ
?getDynamicClassID@ICUServiceKey@icu_4_0@@UBEPAXXZ
?getDynamicClassID@Locale@icu_4_0@@UBEPAXXZ
?getDynamicClassID@LocaleKey@icu_4_0@@UBEPAXXZ
?getDynamicClassID@LocaleKeyFactory@icu_4_0@@UBEPAXXZ
?getDynamicClassID@Normalizer@icu_4_0@@UBEPAXXZ
?getDynamicClassID@ParsePosition@icu_4_0@@UBEPAXXZ
?getDynamicClassID@ResourceBundle@icu_4_0@@UBEPAXXZ
?getDynamicClassID@RuleBasedBreakIterator@icu_4_0@@UBEPAXXZ
?getDynamicClassID@ServiceListener@icu_4_0@@UBEPAXXZ
?getDynamicClassID@SimpleFactory@icu_4_0@@UBEPAXXZ
?getDynamicClassID@SimpleLocaleKeyFactory@icu_4_0@@UBEPAXXZ
?getDynamicClassID@StringCharacterIterator@icu_4_0@@UBEPAXXZ
?getDynamicClassID@UCharCharacterIterator@icu_4_0@@UBEPAXXZ
?getDynamicClassID@UStack@icu_4_0@@UBEPAXXZ
?getDynamicClassID@UStringEnumeration@icu_4_0@@UBEPAXXZ
?getDynamicClassID@UVector32@icu_4_0@@UBEPAXXZ
?getDynamicClassID@UVector@icu_4_0@@UBEPAXXZ
?getDynamicClassID@UnicodeSet@icu_4_0@@UBEPAXXZ
?getDynamicClassID@UnicodeSetIterator@icu_4_0@@UBEPAXXZ
?getDynamicClassID@UnicodeString@icu_4_0@@UBEPAXXZ
?getEnglish@Locale@icu_4_0@@SAABV12@XZ
?getEquivalents2@CanonicalIterator@icu_4_0@@AAEPAVHashtable@2@PAV32@PB_WHAAW4UErrorCode@@@Z ; has WINAPI (@16)
?getEquivalents@CanonicalIterator@icu_4_0@@AAEPAVUnicodeString@2@ABV32@AAHAAW4UErrorCode@@@Z ; has WINAPI (@12)
?getErrorIndex@ParsePosition@icu_4_0@@QBEHXZ
?getFrance@Locale@icu_4_0@@SAABV12@XZ
?getFrench@Locale@icu_4_0@@SAABV12@XZ
?getFromDate@DateInterval@icu_4_0@@QBENXZ
?getGerman@Locale@icu_4_0@@SAABV12@XZ
?getGermany@Locale@icu_4_0@@SAABV12@XZ
?getID@ICUServiceKey@icu_4_0@@UBEABVUnicodeString@2@XZ
?getISO3Country@Locale@icu_4_0@@QBEPBDXZ
?getISO3Language@Locale@icu_4_0@@QBEPBDXZ
?getISOCountries@Locale@icu_4_0@@SAPBQBDXZ
?getISOLanguages@Locale@icu_4_0@@SAPBQBDXZ
?getInclusions@UnicodeSet@icu_4_0@@CAPBV12@HAAW4UErrorCode@@@Z
?getIndex@CharacterIterator@icu_4_0@@QBEHXZ
?getIndex@Normalizer@icu_4_0@@QBEHXZ
?getIndex@ParsePosition@icu_4_0@@QBEHXZ
?getInt@ResourceBundle@icu_4_0@@QBEHAAW4UErrorCode@@@Z ; has WINAPI (@4)
?getIntVector@ResourceBundle@icu_4_0@@QBEPBHAAHAAW4UErrorCode@@@Z ; has WINAPI (@8)
?getItalian@Locale@icu_4_0@@SAABV12@XZ
?getItaly@Locale@icu_4_0@@SAABV12@XZ
?getJapan@Locale@icu_4_0@@SAABV12@XZ
?getJapanese@Locale@icu_4_0@@SAABV12@XZ
?getKey@ICUService@icu_4_0@@QBEPAVUObject@2@AAVICUServiceKey@2@AAW4UErrorCode@@@Z ; has WINAPI (@8)
?getKey@ICUService@icu_4_0@@QBEPAVUObject@2@AAVICUServiceKey@2@PAVUnicodeString@2@PBVICUServiceFactory@2@AAW4UErrorCode@@@Z ; has WINAPI (@16)
?getKey@ICUService@icu_4_0@@UBEPAVUObject@2@AAVICUServiceKey@2@PAVUnicodeString@2@AAW4UErrorCode@@@Z ; has WINAPI (@12)
?getKey@ResourceBundle@icu_4_0@@QBEPBDXZ
?getKeywordValue@Locale@icu_4_0@@QBEHPBDPADHAAW4UErrorCode@@@Z ; has WINAPI (@16)
?getKorea@Locale@icu_4_0@@SAABV12@XZ
?getKorean@Locale@icu_4_0@@SAABV12@XZ
?getLCID@Locale@icu_4_0@@QBEIXZ
?getLanguage@Locale@icu_4_0@@QBEPBDXZ
?getLanguageBreakEngine@RuleBasedBreakIterator@icu_4_0@@AAEPBVLanguageBreakEngine@2@H@Z ; has WINAPI (@4)
?getLength@CharacterIterator@icu_4_0@@QBEHXZ
?getLength@UnicodeString@icu_4_0@@MBEHXZ
?getLocale@BreakIterator@icu_4_0@@QBE?AVLocale@2@W4ULocDataLocaleType@@AAW4UErrorCode@@@Z ; has WINAPI (@12)
?getLocale@Locale@icu_4_0@@CAABV12@H@Z
?getLocale@LocaleBased@icu_4_0@@QBE?AVLocale@2@W4ULocDataLocaleType@@AAW4UErrorCode@@@Z ; has WINAPI (@12)
?getLocale@ResourceBundle@icu_4_0@@QBE?BVLocale@2@W4ULocDataLocaleType@@AAW4UErrorCode@@@Z ; has WINAPI (@12)
?getLocale@ResourceBundle@icu_4_0@@QBEABVLocale@2@XZ
?getLocaleCache@Locale@icu_4_0@@CAPAV12@XZ
?getLocaleID@BreakIterator@icu_4_0@@QBEPBDW4ULocDataLocaleType@@AAW4UErrorCode@@@Z ; has WINAPI (@8)
?getLocaleID@LocaleBased@icu_4_0@@QBEPBDW4ULocDataLocaleType@@AAW4UErrorCode@@@Z ; has WINAPI (@8)
?getName@ICUService@icu_4_0@@QBEAAVUnicodeString@2@AAV32@@Z ; has WINAPI (@4)
?getName@Locale@icu_4_0@@QBEPBDXZ
?getName@ResourceBundle@icu_4_0@@QBEPBDXZ
?getNext@ResourceBundle@icu_4_0@@QAE?AV12@AAW4UErrorCode@@@Z ; has WINAPI (@8)
?getNextString@ResourceBundle@icu_4_0@@QAE?AVUnicodeString@2@AAW4UErrorCode@@@Z ; has WINAPI (@8)
?getNextString@ResourceBundle@icu_4_0@@QAE?AVUnicodeString@2@PAPBDAAW4UErrorCode@@@Z ; has WINAPI (@12)
?getOption@Normalizer@icu_4_0@@QBECH@Z ; has WINAPI (@4)
?getPRC@Locale@icu_4_0@@SAABV12@XZ
?getRangeCount@UnicodeSet@icu_4_0@@UBEHXZ
?getRangeEnd@UnicodeSet@icu_4_0@@UBEHH@Z ; has WINAPI (@4)
?getRangeStart@UnicodeSet@icu_4_0@@UBEHH@Z ; has WINAPI (@4)
?getRuleStatus@RuleBasedBreakIterator@icu_4_0@@UBEHXZ
?getRuleStatusVec@RuleBasedBreakIterator@icu_4_0@@UAEHPAHHAAW4UErrorCode@@@Z ; has WINAPI (@12)
?getRules@RuleBasedBreakIterator@icu_4_0@@UBEABVUnicodeString@2@XZ
?getScript@Locale@icu_4_0@@QBEPBDXZ
?getSimplifiedChinese@Locale@icu_4_0@@SAABV12@XZ
?getSingleCP@UnicodeSet@icu_4_0@@CAHABVUnicodeString@2@@Z
?getSize@ResourceBundle@icu_4_0@@QBEHXZ
?getSource@CanonicalIterator@icu_4_0@@QAE?AVUnicodeString@2@XZ ; has WINAPI (@4)
?getStaticClassID@CanonicalIterator@icu_4_0@@SAPAXXZ
?getStaticClassID@DateInterval@icu_4_0@@SAPAXXZ
?getStaticClassID@EventListener@icu_4_0@@SAPAXXZ
?getStaticClassID@ICUResourceBundleFactory@icu_4_0@@SAPAXXZ
?getStaticClassID@ICUServiceKey@icu_4_0@@SAPAXXZ
?getStaticClassID@Locale@icu_4_0@@SAPAXXZ
?getStaticClassID@LocaleKey@icu_4_0@@SAPAXXZ
?getStaticClassID@LocaleKeyFactory@icu_4_0@@SAPAXXZ
?getStaticClassID@Normalizer@icu_4_0@@SAPAXXZ
?getStaticClassID@ParsePosition@icu_4_0@@SAPAXXZ
?getStaticClassID@ResourceBundle@icu_4_0@@SAPAXXZ
?getStaticClassID@RuleBasedBreakIterator@icu_4_0@@SAPAXXZ
?getStaticClassID@ServiceListener@icu_4_0@@SAPAXXZ
?getStaticClassID@SimpleFactory@icu_4_0@@SAPAXXZ
?getStaticClassID@SimpleLocaleKeyFactory@icu_4_0@@SAPAXXZ
?getStaticClassID@StringCharacterIterator@icu_4_0@@SAPAXXZ
?getStaticClassID@UCharCharacterIterator@icu_4_0@@SAPAXXZ
?getStaticClassID@UStack@icu_4_0@@SAPAXXZ
?getStaticClassID@UStringEnumeration@icu_4_0@@SAPAXXZ
?getStaticClassID@UVector32@icu_4_0@@SAPAXXZ
?getStaticClassID@UVector@icu_4_0@@SAPAXXZ
?getStaticClassID@UnicodeFilter@icu_4_0@@SAPAXXZ
?getStaticClassID@UnicodeFunctor@icu_4_0@@SAPAXXZ
?getStaticClassID@UnicodeSet@icu_4_0@@SAPAXXZ
?getStaticClassID@UnicodeSetIterator@icu_4_0@@SAPAXXZ
?getStaticClassID@UnicodeString@icu_4_0@@SAPAXXZ
?getString@ResourceBundle@icu_4_0@@QBE?AVUnicodeString@2@AAW4UErrorCode@@@Z ; has WINAPI (@8)
?getString@UnicodeSet@icu_4_0@@ABEPBVUnicodeString@2@H@Z ; has WINAPI (@4)
?getString@UnicodeSetIterator@icu_4_0@@QAEABVUnicodeString@2@XZ
?getStringCount@UnicodeSet@icu_4_0@@ABEHXZ
?getStringEx@ResourceBundle@icu_4_0@@QBE?AVUnicodeString@2@HAAW4UErrorCode@@@Z ; has WINAPI (@12)
?getStringEx@ResourceBundle@icu_4_0@@QBE?AVUnicodeString@2@PBDAAW4UErrorCode@@@Z ; has WINAPI (@12)
?getSupportedIDs@ICUResourceBundleFactory@icu_4_0@@MBEPBVHashtable@2@AAW4UErrorCode@@@Z ; has WINAPI (@4)
?getSupportedIDs@LocaleKeyFactory@icu_4_0@@MBEPBVHashtable@2@AAW4UErrorCode@@@Z ; has WINAPI (@4)
?getTaiwan@Locale@icu_4_0@@SAABV12@XZ
?getTerminatedBuffer@UnicodeString@icu_4_0@@QAEPB_WXZ
?getText@Normalizer@icu_4_0@@QAEXAAVUnicodeString@2@@Z ; Check!!! Couldn't determine function argument count. Function doesn't return. 
?getText@RuleBasedBreakIterator@icu_4_0@@UBEAAVCharacterIterator@2@XZ
?getText@StringCharacterIterator@icu_4_0@@UAEXAAVUnicodeString@2@@Z ; has WINAPI (@4)
?getText@UCharCharacterIterator@icu_4_0@@UAEXAAVUnicodeString@2@@Z ; has WINAPI (@4)
?getTimestamp@ICUService@icu_4_0@@IBEHXZ
?getToDate@DateInterval@icu_4_0@@QBENXZ
?getTraditionalChinese@Locale@icu_4_0@@SAABV12@XZ
?getType@ResourceBundle@icu_4_0@@QBE?AW4UResType@@XZ
?getUInt@ResourceBundle@icu_4_0@@QBEIAAW4UErrorCode@@@Z ; has WINAPI (@4)
?getUK@Locale@icu_4_0@@SAABV12@XZ
?getUMode@Normalizer@icu_4_0@@QBE?AW4UNormalizationMode@@XZ
?getUS@Locale@icu_4_0@@SAABV12@XZ
?getUText@RuleBasedBreakIterator@icu_4_0@@UBEPAUUText@@PAU3@AAW4UErrorCode@@@Z ; has WINAPI (@8)
?getVariant@Locale@icu_4_0@@QBEPBDXZ
?getVersion@ResourceBundle@icu_4_0@@QBEXQAE@Z ; has WINAPI (@4)
?getVersionNumber@ResourceBundle@icu_4_0@@QBEPBDXZ
?getVisibleIDMap@ICUService@icu_4_0@@IBEPBVHashtable@2@AAW4UErrorCode@@@Z ; has WINAPI (@4)
?getVisibleIDs@ICUService@icu_4_0@@QBEAAVUVector@2@AAV32@AAW4UErrorCode@@@Z ; has WINAPI (@8)
?getVisibleIDs@ICUService@icu_4_0@@QBEAAVUVector@2@AAV32@PBVUnicodeString@2@AAW4UErrorCode@@@Z ; has WINAPI (@12)
?getWithFallback@ResourceBundle@icu_4_0@@QAE?AV12@PBDAAW4UErrorCode@@@Z ; has WINAPI (@12)
?geti@Hashtable@icu_4_0@@QBEHABVUnicodeString@2@@Z ; has WINAPI (@4)
?handleCreate@ICUResourceBundleFactory@icu_4_0@@MBEPAVUObject@2@ABVLocale@2@HPBVICUService@2@AAW4UErrorCode@@@Z ; has WINAPI (@16)
?handleCreate@LocaleKeyFactory@icu_4_0@@MBEPAVUObject@2@ABVLocale@2@HPBVICUService@2@AAW4UErrorCode@@@Z ; has WINAPI (@16)
?handleDefault@ICUService@icu_4_0@@MBEPAVUObject@2@ABVICUServiceKey@2@PAVUnicodeString@2@AAW4UErrorCode@@@Z ; has WINAPI (@12)
?handleNext@RuleBasedBreakIterator@icu_4_0@@AAEHPBURBBIStateTable@2@@Z ; has WINAPI (@4)
?handlePrevious@RuleBasedBreakIterator@icu_4_0@@AAEHPBURBBIStateTable@2@@Z ; has WINAPI (@4)
?handleReplaceBetween@UnicodeString@icu_4_0@@UAEXHHABV12@@Z ; has WINAPI (@12)
?handlesKey@LocaleKeyFactory@icu_4_0@@MBECABVICUServiceKey@2@AAW4UErrorCode@@@Z ; has WINAPI (@8)
?hasMetaData@Replaceable@icu_4_0@@UBECXZ
?hasMetaData@UnicodeString@icu_4_0@@UBECXZ
?hasMoreChar32Than@UnicodeString@icu_4_0@@QBECHHH@Z ; has WINAPI (@12)
?hasNext@ResourceBundle@icu_4_0@@QBECXZ
?hasNext@UCharCharacterIterator@icu_4_0@@UAECXZ
?hasPrevious@UCharCharacterIterator@icu_4_0@@UAECXZ
?hashCode@Locale@icu_4_0@@QBEHXZ
?hashCode@Normalizer@icu_4_0@@QBEHXZ
?hashCode@RuleBasedBreakIterator@icu_4_0@@UBEHXZ
?hashCode@UCharCharacterIterator@icu_4_0@@UBEHXZ
?hashCode@UnicodeSet@icu_4_0@@UBEHXZ
?hashCode@UnicodeString@icu_4_0@@QBEHXZ
?indexOf@UVector32@icu_4_0@@QBEHHH@Z ; has WINAPI (@8)
?indexOf@UVector@icu_4_0@@ABEHTUHashTok@@HC@Z ; has WINAPI (@12)
?indexOf@UVector@icu_4_0@@QBEHHH@Z ; has WINAPI (@8)
?indexOf@UVector@icu_4_0@@QBEHPAXH@Z ; has WINAPI (@8)
?indexOf@UnicodeSet@icu_4_0@@QBEHH@Z ; has WINAPI (@4)
?indexOf@UnicodeString@icu_4_0@@QBEHABV12@@Z ; has WINAPI (@4)
?indexOf@UnicodeString@icu_4_0@@QBEHABV12@H@Z ; has WINAPI (@8)
?indexOf@UnicodeString@icu_4_0@@QBEHABV12@HH@Z ; has WINAPI (@12)
?indexOf@UnicodeString@icu_4_0@@QBEHABV12@HHHH@Z ; has WINAPI (@20)
?indexOf@UnicodeString@icu_4_0@@QBEHH@Z ; has WINAPI (@4)
?indexOf@UnicodeString@icu_4_0@@QBEHHH@Z ; has WINAPI (@8)
?indexOf@UnicodeString@icu_4_0@@QBEHHHH@Z ; has WINAPI (@12)
?indexOf@UnicodeString@icu_4_0@@QBEHPB_WHH@Z ; has WINAPI (@12)
?indexOf@UnicodeString@icu_4_0@@QBEHPB_WHHH@Z ; has WINAPI (@16)
?indexOf@UnicodeString@icu_4_0@@QBEHPB_WHHHH@Z ; has WINAPI (@20)
?indexOf@UnicodeString@icu_4_0@@QBEH_W@Z ; has WINAPI (@4)
?indexOf@UnicodeString@icu_4_0@@QBEH_WH@Z ; has WINAPI (@8)
?indexOf@UnicodeString@icu_4_0@@QBEH_WHH@Z ; has WINAPI (@12)
?init@Hashtable@icu_4_0@@AAEXP6AHTUHashTok@@@ZP6AC00@Z2AAW4UErrorCode@@@Z ; has WINAPI (@16)
?init@Locale@icu_4_0@@AAEAAV12@PBDC@Z ; has WINAPI (@8)
?init@Normalizer@icu_4_0@@AAEXPAVCharacterIterator@2@@Z ; has WINAPI (@4)
?init@RuleBasedBreakIterator@icu_4_0@@IAEXXZ
?initLocaleFromName@LocaleUtility@icu_4_0@@SAAAVLocale@2@ABVUnicodeString@2@AAV32@@Z
?initNameFromLocale@LocaleUtility@icu_4_0@@SAAAVUnicodeString@2@ABVLocale@2@AAV32@@Z
?insert@UnicodeString@icu_4_0@@QAEAAV12@HABV12@@Z ; has WINAPI (@8)
?insert@UnicodeString@icu_4_0@@QAEAAV12@HABV12@HH@Z ; has WINAPI (@16)
?insert@UnicodeString@icu_4_0@@QAEAAV12@HH@Z ; has WINAPI (@8)
?insert@UnicodeString@icu_4_0@@QAEAAV12@HPB_WH@Z ; has WINAPI (@12)
?insert@UnicodeString@icu_4_0@@QAEAAV12@HPB_WHH@Z ; has WINAPI (@16)
?insert@UnicodeString@icu_4_0@@QAEAAV12@H_W@Z ; has WINAPI (@8)
?insertElementAt@UVector32@icu_4_0@@QAEXHHAAW4UErrorCode@@@Z ; has WINAPI (@12)
?insertElementAt@UVector@icu_4_0@@QAEXHHAAW4UErrorCode@@@Z ; has WINAPI (@12)
?insertElementAt@UVector@icu_4_0@@QAEXPAXHAAW4UErrorCode@@@Z ; has WINAPI (@12)
?isBogus@Locale@icu_4_0@@QBECXZ
?isBogus@StringPair@icu_4_0@@QBECXZ
?isBogus@UnicodeSet@icu_4_0@@QBECXZ
?isBogus@UnicodeString@icu_4_0@@QBECXZ
?isBoundary@RuleBasedBreakIterator@icu_4_0@@UAECH@Z ; has WINAPI (@4)
?isBufferClone@BreakIterator@icu_4_0@@QAECXZ
?isBufferWritable@UnicodeString@icu_4_0@@ABECXZ
?isDefault@ICUService@icu_4_0@@UBECXZ
?isEmpty@UVector32@icu_4_0@@QBECXZ
?isEmpty@UVector@icu_4_0@@QBECXZ
?isEmpty@UnicodeSet@icu_4_0@@UBECXZ
?isEmpty@UnicodeString@icu_4_0@@QBECXZ
?isFallbackOf@ICUServiceKey@icu_4_0@@UBECABVUnicodeString@2@@Z ; has WINAPI (@4)
?isFallbackOf@LocaleKey@icu_4_0@@UBECABVUnicodeString@2@@Z ; has WINAPI (@4)
?isFallbackOf@LocaleUtility@icu_4_0@@SACABVUnicodeString@2@0@Z
?isFrozen@UnicodeSet@icu_4_0@@QBECXZ
?isNormalized@Normalizer@icu_4_0@@SACABVUnicodeString@2@W4UNormalizationMode@@AAW4UErrorCode@@@Z
?isNormalized@Normalizer@icu_4_0@@SACABVUnicodeString@2@W4UNormalizationMode@@HAAW4UErrorCode@@@Z
?isString@UnicodeSetIterator@icu_4_0@@QBECXZ
?isUnprintable@ICU_Utility@icu_4_0@@SACH@Z
?isWritable@UnicodeString@icu_4_0@@ABECXZ
?kind@LocaleKey@icu_4_0@@UBEHXZ
?last32@UCharCharacterIterator@icu_4_0@@UAEHXZ
?last@Normalizer@icu_4_0@@QAEHXZ
?last@RuleBasedBreakIterator@icu_4_0@@UAEHXZ
?last@UCharCharacterIterator@icu_4_0@@UAE_WXZ
?lastElement@UVector@icu_4_0@@QBEPAXXZ
?lastElementi@UVector32@icu_4_0@@QBEHXZ
?lastElementi@UVector@icu_4_0@@QBEHXZ
?lastIndexOf@UnicodeString@icu_4_0@@QBEHABV12@@Z ; has WINAPI (@4)
?lastIndexOf@UnicodeString@icu_4_0@@QBEHABV12@H@Z ; has WINAPI (@8)
?lastIndexOf@UnicodeString@icu_4_0@@QBEHABV12@HH@Z ; has WINAPI (@12)
?lastIndexOf@UnicodeString@icu_4_0@@QBEHABV12@HHHH@Z ; has WINAPI (@20)
?lastIndexOf@UnicodeString@icu_4_0@@QBEHH@Z ; has WINAPI (@4)
?lastIndexOf@UnicodeString@icu_4_0@@QBEHHH@Z ; has WINAPI (@8)
?lastIndexOf@UnicodeString@icu_4_0@@QBEHHHH@Z ; has WINAPI (@12)
?lastIndexOf@UnicodeString@icu_4_0@@QBEHPB_WHH@Z ; has WINAPI (@12)
?lastIndexOf@UnicodeString@icu_4_0@@QBEHPB_WHHH@Z ; has WINAPI (@16)
?lastIndexOf@UnicodeString@icu_4_0@@QBEHPB_WHHHH@Z ; has WINAPI (@20)
?lastIndexOf@UnicodeString@icu_4_0@@QBEH_W@Z ; has WINAPI (@4)
?lastIndexOf@UnicodeString@icu_4_0@@QBEH_WH@Z ; has WINAPI (@8)
?lastIndexOf@UnicodeString@icu_4_0@@QBEH_WHH@Z ; has WINAPI (@12)
?length@Replaceable@icu_4_0@@QBEHXZ ; Check!!! Couldn't determine function argument count. Function doesn't return. 
?length@UnicodeString@icu_4_0@@QBEHXZ
?loadRange@UnicodeSetIterator@icu_4_0@@MAEXH@Z ; has WINAPI (@4)
?makeInstance@BreakIterator@icu_4_0@@CAPAV12@ABVLocale@2@HAAW4UErrorCode@@@Z
?makeRuleStatusValid@RuleBasedBreakIterator@icu_4_0@@AAEXXZ
?matchRest@UnicodeSet@icu_4_0@@CAHABVReplaceable@2@HHABVUnicodeString@2@@Z
?matches@CompactTrieDictionary@icu_4_0@@UBEHPAUUText@@HPAHAAHH@Z ; has WINAPI (@20)
?matches@MutableTrieDictionary@icu_4_0@@UBEHPAUUText@@HPAHAAHH@Z ; has WINAPI (@20)
?matches@UnicodeFilter@icu_4_0@@UAE?AW4UMatchDegree@2@ABVReplaceable@2@AAHHC@Z ; has WINAPI (@16)
?matches@UnicodeSet@icu_4_0@@UAE?AW4UMatchDegree@2@ABVReplaceable@2@AAHHC@Z ; has WINAPI (@16)
?matchesIndexValue@UnicodeSet@icu_4_0@@EBECE@Z ; has WINAPI (@4)
?move32@UCharCharacterIterator@icu_4_0@@UAEHHW4EOrigin@CharacterIterator@2@@Z ; has WINAPI (@8)
?move@UCharCharacterIterator@icu_4_0@@UAEHHW4EOrigin@CharacterIterator@2@@Z ; has WINAPI (@8)
?moveIndex32@UnicodeString@icu_4_0@@QBEHHH@Z ; has WINAPI (@8)
?next32@UCharCharacterIterator@icu_4_0@@UAEHXZ
?next32PostInc@UCharCharacterIterator@icu_4_0@@UAEHXZ
?next@CanonicalIterator@icu_4_0@@QAE?AVUnicodeString@2@XZ ; has WINAPI (@4)
?next@Normalizer@icu_4_0@@QAEHXZ
?next@RuleBasedBreakIterator@icu_4_0@@UAEHH@Z ; has WINAPI (@4)
?next@RuleBasedBreakIterator@icu_4_0@@UAEHXZ
?next@StringEnumeration@icu_4_0@@UAEPBDPAHAAW4UErrorCode@@@Z ; has WINAPI (@8)
?next@UCharCharacterIterator@icu_4_0@@UAE_WXZ
?next@UnicodeSetIterator@icu_4_0@@QAECXZ
?nextElement@Hashtable@icu_4_0@@QBEPBUUHashElement@@AAH@Z ; has WINAPI (@4)
?nextNormalize@Normalizer@icu_4_0@@AAECXZ
?nextPostInc@UCharCharacterIterator@icu_4_0@@UAE_WXZ
?nextRange@UnicodeSetIterator@icu_4_0@@QAECXZ
?normalize@Normalizer@icu_4_0@@SAXABVUnicodeString@2@W4UNormalizationMode@@HAAV32@AAW4UErrorCode@@@Z
?notifyChanged@ICUNotifier@icu_4_0@@UAEXXZ
?notifyListener@ICUService@icu_4_0@@MBEXAAVEventListener@2@@Z ; Check!!! Couldn't determine function argument count. Function doesn't return. 
?openWords@CompactTrieDictionary@icu_4_0@@UBEPAVStringEnumeration@2@AAW4UErrorCode@@@Z ; has WINAPI (@4)
?openWords@MutableTrieDictionary@icu_4_0@@UBEPAVStringEnumeration@2@AAW4UErrorCode@@@Z ; has WINAPI (@4)
?orphanElementAt@UVector@icu_4_0@@QAEPAXH@Z ; has WINAPI (@4)
?padLeading@UnicodeString@icu_4_0@@QAECH_W@Z ; has WINAPI (@8)
?padTrailing@UnicodeString@icu_4_0@@QAECH_W@Z ; has WINAPI (@8)
?parseChar@ICU_Utility@icu_4_0@@SACABVUnicodeString@2@AAH_W@Z
?parseInteger@ICU_Utility@icu_4_0@@SAHABVUnicodeString@2@AAHH@Z
?parseNumber@ICU_Utility@icu_4_0@@SAHABVUnicodeString@2@AAHC@Z
?parsePattern@ICU_Utility@icu_4_0@@SAHABVUnicodeString@2@ABVReplaceable@2@HH@Z
?parsePattern@ICU_Utility@icu_4_0@@SAHABVUnicodeString@2@HH0PAH@Z
?parsePrefix@ICUServiceKey@icu_4_0@@SAAAVUnicodeString@2@AAV32@@Z
?parseSuffix@ICUServiceKey@icu_4_0@@SAAAVUnicodeString@2@AAV32@@Z
?parseUnicodeIdentifier@ICU_Utility@icu_4_0@@SA?AVUnicodeString@2@ABV32@AAH@Z
?peek@UStack@icu_4_0@@QBEPAXXZ
?peeki@UStack@icu_4_0@@QBEHXZ
?peeki@UVector32@icu_4_0@@QBEHXZ
?permute@CanonicalIterator@icu_4_0@@SAXAAVUnicodeString@2@CPAVHashtable@2@AAW4UErrorCode@@@Z
?pinIndex@UnicodeString@icu_4_0@@ABEXAAH@Z ; has WINAPI (@4)
?pinIndices@UnicodeString@icu_4_0@@ABEXAAH0@Z ; has WINAPI (@8)
?pop@UStack@icu_4_0@@QAEPAXXZ
?popFrame@UVector32@icu_4_0@@QAEPAHH@Z ; has WINAPI (@4)
?popi@UStack@icu_4_0@@QAEHXZ
?popi@UVector32@icu_4_0@@QAEHXZ
?preceding@RuleBasedBreakIterator@icu_4_0@@UAEHH@Z ; has WINAPI (@4)
?prefix@ICUServiceKey@icu_4_0@@UBEAAVUnicodeString@2@AAV32@@Z ; has WINAPI (@4)
?prefix@LocaleKey@icu_4_0@@UBEAAVUnicodeString@2@AAV32@@Z ; has WINAPI (@4)
?previous32@UCharCharacterIterator@icu_4_0@@UAEHXZ
?previous@Normalizer@icu_4_0@@QAEHXZ
?previous@RuleBasedBreakIterator@icu_4_0@@UAEHXZ
?previous@UCharCharacterIterator@icu_4_0@@UAE_WXZ
?previousNormalize@Normalizer@icu_4_0@@AAECXZ
?push@UStack@icu_4_0@@QAEHHAAW4UErrorCode@@@Z ; has WINAPI (@8)
?push@UStack@icu_4_0@@QAEPAXPAXAAW4UErrorCode@@@Z ; has WINAPI (@8)
?push@UVector32@icu_4_0@@QAEHHAAW4UErrorCode@@@Z ; has WINAPI (@8)
?put@Hashtable@icu_4_0@@QAEPAXABVUnicodeString@2@PAXAAW4UErrorCode@@@Z ; has WINAPI (@12)
?puti@Hashtable@icu_4_0@@QAEHABVUnicodeString@2@HAAW4UErrorCode@@@Z ; has WINAPI (@12)
?quickCheck@Normalizer@icu_4_0@@SA?AW4UNormalizationCheckResult@@ABVUnicodeString@2@W4UNormalizationMode@@AAW4UErrorCode@@@Z
?quickCheck@Normalizer@icu_4_0@@SA?AW4UNormalizationCheckResult@@ABVUnicodeString@2@W4UNormalizationMode@@HAAW4UErrorCode@@@Z
?reInitializeFactories@ICUService@icu_4_0@@MAEXXZ
?refCount@UnicodeString@icu_4_0@@ABEHXZ
?registerFactory@ICUService@icu_4_0@@UAEPBXPAVICUServiceFactory@2@AAW4UErrorCode@@@Z ; has WINAPI (@8)
?registerInstance@BreakIterator@icu_4_0@@SAPBXPAV12@ABVLocale@2@W4UBreakIteratorType@@AAW4UErrorCode@@@Z
?registerInstance@ICULocaleService@icu_4_0@@UAEPBXPAVUObject@2@ABVLocale@2@AAW4UErrorCode@@@Z ; has WINAPI (@12)
?registerInstance@ICULocaleService@icu_4_0@@UAEPBXPAVUObject@2@ABVLocale@2@HAAW4UErrorCode@@@Z ; has WINAPI (@16)
?registerInstance@ICULocaleService@icu_4_0@@UAEPBXPAVUObject@2@ABVLocale@2@HHAAW4UErrorCode@@@Z ; has WINAPI (@20)
?registerInstance@ICULocaleService@icu_4_0@@UAEPBXPAVUObject@2@ABVUnicodeString@2@CAAW4UErrorCode@@@Z ; has WINAPI (@16)
?registerInstance@ICUService@icu_4_0@@QAEPBXPAVUObject@2@ABVUnicodeString@2@AAW4UErrorCode@@@Z ; has WINAPI (@12)
?registerInstance@ICUService@icu_4_0@@UAEPBXPAVUObject@2@ABVUnicodeString@2@CAAW4UErrorCode@@@Z ; has WINAPI (@16)
?releaseArray@UnicodeString@icu_4_0@@AAEXXZ
?releaseBuffer@UnicodeString@icu_4_0@@QAEXH@Z ; has WINAPI (@4)
?releasePattern@UnicodeSet@icu_4_0@@AAEXXZ
?remove@Hashtable@icu_4_0@@QAEPAXABVUnicodeString@2@@Z ; has WINAPI (@4)
?remove@UnicodeSet@icu_4_0@@QAEAAV12@ABVUnicodeString@2@@Z ; has WINAPI (@4)
?remove@UnicodeSet@icu_4_0@@QAEAAV12@H@Z ; has WINAPI (@4)
?remove@UnicodeSet@icu_4_0@@UAEAAV12@HH@Z ; has WINAPI (@8)
?remove@UnicodeString@icu_4_0@@QAEAAV12@HH@Z ; has WINAPI (@8)
?remove@UnicodeString@icu_4_0@@QAEAAV12@XZ
?removeAll@Hashtable@icu_4_0@@QAEXXZ
?removeAll@UVector32@icu_4_0@@QAECABV12@@Z ; has WINAPI (@4)
?removeAll@UVector@icu_4_0@@QAECABV12@@Z ; has WINAPI (@4)
?removeAll@UnicodeSet@icu_4_0@@QAEAAV12@ABVUnicodeString@2@@Z ; has WINAPI (@4)
?removeAll@UnicodeSet@icu_4_0@@UAEAAV12@ABV12@@Z ; has WINAPI (@4)
?removeAllElements@UVector32@icu_4_0@@QAEXXZ
?removeAllElements@UVector@icu_4_0@@QAEXXZ
?removeAllStrings@UnicodeSet@icu_4_0@@UAEAAV12@XZ
?removeBetween@UnicodeString@icu_4_0@@QAEAAV12@HH@Z ; has WINAPI (@8)
?removeElement@UVector@icu_4_0@@QAECPAX@Z ; has WINAPI (@4)
?removeElementAt@UVector32@icu_4_0@@QAEXH@Z ; has WINAPI (@4)
?removeElementAt@UVector@icu_4_0@@QAEXH@Z ; has WINAPI (@4)
?removeListener@ICUNotifier@icu_4_0@@UAEXPBVEventListener@2@AAW4UErrorCode@@@Z ; has WINAPI (@8)
?removeRef@UnicodeString@icu_4_0@@AAEHXZ
?removei@Hashtable@icu_4_0@@QAEHABVUnicodeString@2@@Z ; has WINAPI (@4)
?replace@UnicodeString@icu_4_0@@QAEAAV12@HHABV12@@Z ; has WINAPI (@12)
?replace@UnicodeString@icu_4_0@@QAEAAV12@HHABV12@HH@Z ; has WINAPI (@20)
?replace@UnicodeString@icu_4_0@@QAEAAV12@HHH@Z ; has WINAPI (@12)
?replace@UnicodeString@icu_4_0@@QAEAAV12@HHPB_WH@Z ; has WINAPI (@16)
?replace@UnicodeString@icu_4_0@@QAEAAV12@HHPB_WHH@Z ; has WINAPI (@20)
?replace@UnicodeString@icu_4_0@@QAEAAV12@HH_W@Z ; has WINAPI (@12)
?replaceBetween@UnicodeString@icu_4_0@@QAEAAV12@HHABV12@@Z ; has WINAPI (@12)
?replaceBetween@UnicodeString@icu_4_0@@QAEAAV12@HHABV12@HH@Z ; has WINAPI (@20)
?resemblesPattern@UnicodeSet@icu_4_0@@SACABVUnicodeString@2@H@Z
?resemblesPropertyPattern@UnicodeSet@icu_4_0@@CACAAVRuleCharacterIterator@2@H@Z
?resemblesPropertyPattern@UnicodeSet@icu_4_0@@CACABVUnicodeString@2@H@Z
?reserveBlock@UVector32@icu_4_0@@QAEPAHHAAW4UErrorCode@@@Z ; has WINAPI (@8)
?reset@CanonicalIterator@icu_4_0@@QAEXXZ
?reset@ICUService@icu_4_0@@UAEXXZ
?reset@Normalizer@icu_4_0@@QAEXXZ
?reset@RuleBasedBreakIterator@icu_4_0@@MAEXXZ
?reset@UStringEnumeration@icu_4_0@@UAEXAAW4UErrorCode@@@Z ; has WINAPI (@4)
?reset@UnicodeSetIterator@icu_4_0@@QAEXABVUnicodeSet@2@@Z ; has WINAPI (@4)
?reset@UnicodeSetIterator@icu_4_0@@QAEXXZ
?resetIterator@ResourceBundle@icu_4_0@@QAEXXZ
?retain@UnicodeSet@icu_4_0@@AAEXPBHHC@Z ; has WINAPI (@12)
?retain@UnicodeSet@icu_4_0@@QAEAAV12@H@Z ; has WINAPI (@4)
?retain@UnicodeSet@icu_4_0@@UAEAAV12@HH@Z ; has WINAPI (@8)
?retainAll@UVector32@icu_4_0@@QAECABV12@@Z ; has WINAPI (@4)
?retainAll@UVector@icu_4_0@@QAECABV12@@Z ; has WINAPI (@4)
?retainAll@UnicodeSet@icu_4_0@@QAEAAV12@ABVUnicodeString@2@@Z ; has WINAPI (@4)
?retainAll@UnicodeSet@icu_4_0@@UAEAAV12@ABV12@@Z ; has WINAPI (@4)
?reverse@UnicodeString@icu_4_0@@QAEAAV12@HH@Z ; has WINAPI (@8)
?reverse@UnicodeString@icu_4_0@@QAEAAV12@XZ
?search@MutableTrieDictionary@icu_4_0@@MBEHPAUUText@@HPAHAAHHAAPAUTernaryNode@2@AAC@Z ; has WINAPI (@28)
?search@UStack@icu_4_0@@QBEHPAX@Z ; has WINAPI (@4)
?serialize@UnicodeSet@icu_4_0@@QBEHPAGHAAW4UErrorCode@@@Z ; has WINAPI (@12)
?set@UnicodeSet@icu_4_0@@QAEAAV12@HH@Z ; has WINAPI (@8)
?setArray@UnicodeString@icu_4_0@@AAEXPA_WHH@Z ; has WINAPI (@12)
?setBreakType@RuleBasedBreakIterator@icu_4_0@@MAEXH@Z ; has WINAPI (@4)
?setCharAt@UnicodeString@icu_4_0@@QAEAAV12@H_W@Z ; has WINAPI (@8)
?setChars@StringEnumeration@icu_4_0@@IAEPAVUnicodeString@2@PBDHAAW4UErrorCode@@@Z ; has WINAPI (@12)
?setComparer@UVector@icu_4_0@@QAEP6ACTUHashTok@@0@ZP6AC00@Z@Z ; has WINAPI (@4)
?setData@UnicodeFilter@icu_4_0@@UAEXPBVTransliterationRuleData@2@@Z ; has WINAPI (@4)
?setDefault@Locale@icu_4_0@@SAXABV12@AAW4UErrorCode@@@Z
?setDeleter@UVector@icu_4_0@@QAEP6AXPAX@ZP6AX0@Z@Z ; has WINAPI (@4)
?setElementAt@UVector32@icu_4_0@@QAEXHH@Z ; has WINAPI (@8)
?setElementAt@UVector@icu_4_0@@QAEXHH@Z ; has WINAPI (@8)
?setElementAt@UVector@icu_4_0@@QAEXPAXH@Z ; has WINAPI (@8)
?setErrorIndex@ParsePosition@icu_4_0@@QAEXH@Z ; has WINAPI (@4)
?setFromPOSIXID@Locale@icu_4_0@@IAEXPBD@Z ; has WINAPI (@4)
?setIndex32@UCharCharacterIterator@icu_4_0@@UAEHH@Z ; has WINAPI (@4)
?setIndex@ParsePosition@icu_4_0@@QAEXH@Z ; has WINAPI (@4)
?setIndex@UCharCharacterIterator@icu_4_0@@UAE_WH@Z ; has WINAPI (@4)
?setIndexOnly@Normalizer@icu_4_0@@QAEXH@Z ; has WINAPI (@4)
?setKeyCompartor@Hashtable@icu_4_0@@QAEP6ACTUHashTok@@0@ZP6AC00@Z@Z ; has WINAPI (@4)
?setLength@UnicodeString@icu_4_0@@AAEXH@Z ; has WINAPI (@4)
?setLocaleIDs@LocaleBased@icu_4_0@@QAEXPBD0@Z ; has WINAPI (@8)
?setMaxCapacity@UVector32@icu_4_0@@QAEXH@Z ; has WINAPI (@4)
?setMode@Normalizer@icu_4_0@@QAEXW4UNormalizationMode@@@Z ; has WINAPI (@4)
?setOption@Normalizer@icu_4_0@@QAEXHC@Z ; has WINAPI (@8)
?setPattern@UnicodeSet@icu_4_0@@AAEXABVUnicodeString@2@@Z ; has WINAPI (@4)
?setSize@UVector32@icu_4_0@@QAEXH@Z ; has WINAPI (@4)
?setSize@UVector@icu_4_0@@QAEXHAAW4UErrorCode@@@Z ; has WINAPI (@8)
?setSource@CanonicalIterator@icu_4_0@@QAEXABVUnicodeString@2@AAW4UErrorCode@@@Z ; has WINAPI (@8)
?setText@Normalizer@icu_4_0@@QAEXABVCharacterIterator@2@AAW4UErrorCode@@@Z ; has WINAPI (@8)
?setText@Normalizer@icu_4_0@@QAEXABVUnicodeString@2@AAW4UErrorCode@@@Z ; has WINAPI (@8)
?setText@Normalizer@icu_4_0@@QAEXPB_WHAAW4UErrorCode@@@Z ; has WINAPI (@12)
?setText@RuleBasedBreakIterator@icu_4_0@@UAEXABVUnicodeString@2@@Z ; has WINAPI (@4)
?setText@RuleBasedBreakIterator@icu_4_0@@UAEXPAUUText@@AAW4UErrorCode@@@Z ; has WINAPI (@8)
?setText@StringCharacterIterator@icu_4_0@@QAEXABVUnicodeString@2@@Z ; has WINAPI (@4)
?setText@UCharCharacterIterator@icu_4_0@@QAEXPB_WH@Z ; has WINAPI (@8)
?setTo@UnicodeString@icu_4_0@@QAEAAV12@ABV12@@Z ; has WINAPI (@4)
?setTo@UnicodeString@icu_4_0@@QAEAAV12@ABV12@H@Z ; has WINAPI (@8)
?setTo@UnicodeString@icu_4_0@@QAEAAV12@ABV12@HH@Z ; has WINAPI (@12)
?setTo@UnicodeString@icu_4_0@@QAEAAV12@CPB_WH@Z ; has WINAPI (@12)
?setTo@UnicodeString@icu_4_0@@QAEAAV12@H@Z ; has WINAPI (@4)
?setTo@UnicodeString@icu_4_0@@QAEAAV12@PA_WHH@Z ; has WINAPI (@12)
?setTo@UnicodeString@icu_4_0@@QAEAAV12@PB_WH@Z ; has WINAPI (@8)
?setTo@UnicodeString@icu_4_0@@QAEAAV12@_W@Z ; has WINAPI (@4)
?setToBogus@Locale@icu_4_0@@QAEXXZ
?setToBogus@UnicodeSet@icu_4_0@@QAEXXZ
?setToBogus@UnicodeString@icu_4_0@@QAEXXZ
?setToEmpty@UnicodeString@icu_4_0@@AAEXXZ
?setToEnd@CharacterIterator@icu_4_0@@QAEHXZ
?setToStackBuffer@UnicodeString@icu_4_0@@AAEXH@Z ; has WINAPI (@4)
?setToStart@CharacterIterator@icu_4_0@@QAEHXZ
?setValueCompartor@Hashtable@icu_4_0@@QAEP6ACTUHashTok@@0@ZP6AC00@Z@Z ; has WINAPI (@4)
?setValueDeleter@Hashtable@icu_4_0@@QAEP6AXPAX@ZP6AX0@Z@Z ; has WINAPI (@4)
?size@UVector32@icu_4_0@@QBEHXZ
?size@UVector@icu_4_0@@QBEHXZ
?size@UnicodeSet@icu_4_0@@UBEHXZ
?skipWhitespace@ICU_Utility@icu_4_0@@SAHABVUnicodeString@2@AAHC@Z
?snext@UStringEnumeration@icu_4_0@@UAEPBVUnicodeString@2@AAW4UErrorCode@@@Z ; has WINAPI (@4)
?sortedInsert@UVector32@icu_4_0@@QAEXHAAW4UErrorCode@@@Z ; has WINAPI (@8)
?sortedInsert@UVector@icu_4_0@@AAEXTUHashTok@@P6AC00@ZAAW4UErrorCode@@@Z ; has WINAPI (@12)
?sortedInsert@UVector@icu_4_0@@QAEXHP6ACTUHashTok@@0@ZAAW4UErrorCode@@@Z ; has WINAPI (@12)
?sortedInsert@UVector@icu_4_0@@QAEXPAXP6ACTUHashTok@@1@ZAAW4UErrorCode@@@Z ; has WINAPI (@12)
?span@UnicodeSet@icu_4_0@@QBEHPB_WHW4USetSpanCondition@@@Z ; has WINAPI (@12)
?spanBack@UnicodeSet@icu_4_0@@QBEHPB_WHW4USetSpanCondition@@@Z ; has WINAPI (@12)
?spanBackUTF8@UnicodeSet@icu_4_0@@QBEHPBDHW4USetSpanCondition@@@Z ; has WINAPI (@12)
?spanUTF8@UnicodeSet@icu_4_0@@QBEHPBDHW4USetSpanCondition@@@Z ; has WINAPI (@12)
?startIndex@CharacterIterator@icu_4_0@@QBEHXZ
?startIndex@Normalizer@icu_4_0@@QBEHXZ
?startsWith@UnicodeString@icu_4_0@@QBECABV12@@Z ; has WINAPI (@4)
?startsWith@UnicodeString@icu_4_0@@QBECABV12@HH@Z ; has WINAPI (@12)
?startsWith@UnicodeString@icu_4_0@@QBECPB_WH@Z ; has WINAPI (@8)
?startsWith@UnicodeString@icu_4_0@@QBECPB_WHH@Z ; has WINAPI (@12)
?swapBuffers@UnicodeSet@icu_4_0@@AAEXXZ
?toArray@UVector@icu_4_0@@QBEPAPAXPAPAX@Z ; has WINAPI (@4)
?toLower@UnicodeString@icu_4_0@@QAEAAV12@ABVLocale@2@@Z ; has WINAPI (@4)
?toLower@UnicodeString@icu_4_0@@QAEAAV12@XZ
?toMatcher@UnicodeFilter@icu_4_0@@UBEPAVUnicodeMatcher@2@XZ
?toMatcher@UnicodeFunctor@icu_4_0@@UBEPAVUnicodeMatcher@2@XZ
?toPattern@UnicodeSet@icu_4_0@@UBEAAVUnicodeString@2@AAV32@C@Z ; has WINAPI (@8)
?toReplacer@UnicodeFunctor@icu_4_0@@UBEPAVUnicodeReplacer@2@XZ
?toTitle@UnicodeString@icu_4_0@@QAEAAV12@PAVBreakIterator@2@@Z ; has WINAPI (@4)
?toTitle@UnicodeString@icu_4_0@@QAEAAV12@PAVBreakIterator@2@ABVLocale@2@@Z ; has WINAPI (@8)
?toTitle@UnicodeString@icu_4_0@@QAEAAV12@PAVBreakIterator@2@ABVLocale@2@I@Z ; has WINAPI (@12)
?toUpper@UnicodeString@icu_4_0@@QAEAAV12@ABVLocale@2@@Z ; has WINAPI (@4)
?toUpper@UnicodeString@icu_4_0@@QAEAAV12@XZ
?trim@UnicodeString@icu_4_0@@QAEAAV12@XZ
?truncate@UnicodeString@icu_4_0@@QAECH@Z ; has WINAPI (@4)
?unBogus@UnicodeString@icu_4_0@@AAEXXZ
?unescape@UnicodeString@icu_4_0@@QBE?AV12@XZ ; has WINAPI (@4)
?unescapeAt@UnicodeString@icu_4_0@@QBEHAAH@Z ; has WINAPI (@4)
?unext@StringEnumeration@icu_4_0@@UAEPB_WPAHAAW4UErrorCode@@@Z ; has WINAPI (@8)
?unregister@BreakIterator@icu_4_0@@SACPBXAAW4UErrorCode@@@Z
?unregister@ICUService@icu_4_0@@UAECPBXAAW4UErrorCode@@@Z ; has WINAPI (@8)
?updateVisibleIDs@LocaleKeyFactory@icu_4_0@@UBEXAAVHashtable@2@AAW4UErrorCode@@@Z ; has WINAPI (@8)
?updateVisibleIDs@SimpleFactory@icu_4_0@@UBEXAAVHashtable@2@AAW4UErrorCode@@@Z ; has WINAPI (@8)
?updateVisibleIDs@SimpleLocaleKeyFactory@icu_4_0@@UBEXAAVHashtable@2@AAW4UErrorCode@@@Z ; has WINAPI (@8)
?validateFallbackLocale@ICULocaleService@icu_4_0@@IBEABVUnicodeString@2@XZ
T_CString_int64ToString_4_0
T_CString_integerToString_4_0
T_CString_stricmp_4_0
T_CString_stringToInteger_4_0
T_CString_strnicmp_4_0
T_CString_toLowerCase_4_0
T_CString_toUpperCase_4_0
UCNV_FROM_U_CALLBACK_ESCAPE_4_0
UCNV_FROM_U_CALLBACK_SKIP_4_0
UCNV_FROM_U_CALLBACK_STOP_4_0
UCNV_FROM_U_CALLBACK_SUBSTITUTE_4_0
UCNV_TO_U_CALLBACK_ESCAPE_4_0
UCNV_TO_U_CALLBACK_SKIP_4_0
UCNV_TO_U_CALLBACK_STOP_4_0
UCNV_TO_U_CALLBACK_SUBSTITUTE_4_0
triedict_swap_4_0
u_UCharsToChars_4_0
u_austrcpy_4_0
u_austrncpy_4_0
u_catclose_4_0
u_catgets_4_0
u_catopen_4_0
u_charAge_4_0
u_charDigitValue_4_0
u_charDirection_4_0
u_charFromName_4_0
u_charMirror_4_0
u_charName_4_0
u_charType_4_0
u_charsToUChars_4_0
u_cleanup_4_0
u_countChar32_4_0
u_digit_4_0
u_enumCharNames_4_0
u_enumCharTypes_4_0
u_errorName_4_0
u_foldCase_4_0
u_forDigit_4_0
u_getCombiningClass_4_0
u_getDataDirectory_4_0
u_getDefaultConverter_4_0
u_getFC_NFKC_Closure_4_0
u_getISOComment_4_0
u_getIntPropertyMaxValue_4_0
u_getIntPropertyMinValue_4_0
u_getIntPropertyValue_4_0
u_getNumericValue_4_0
u_getPropertyEnum_4_0
u_getPropertyName_4_0
u_getPropertyValueEnum_4_0
u_getPropertyValueName_4_0
u_getUnicodeVersion_4_0
u_getVersion_4_0
u_growBufferFromStatic_4_0
u_hasBinaryProperty_4_0
u_init_4_0
u_isIDIgnorable_4_0
u_isIDPart_4_0
u_isIDStart_4_0
u_isISOControl_4_0
u_isJavaIDPart_4_0
u_isJavaIDStart_4_0
u_isJavaSpaceChar_4_0
u_isMirrored_4_0
u_isUAlphabetic_4_0
u_isULowercase_4_0
u_isUUppercase_4_0
u_isUWhiteSpace_4_0
u_isWhitespace_4_0
u_isalnum_4_0
u_isalpha_4_0
u_isbase_4_0
u_isblank_4_0
u_iscntrl_4_0
u_isdefined_4_0
u_isdigit_4_0
u_isgraph_4_0
u_islower_4_0
u_isprint_4_0
u_ispunct_4_0
u_isspace_4_0
u_istitle_4_0
u_isupper_4_0
u_isxdigit_4_0
u_memcasecmp_4_0
u_memchr32_4_0
u_memchr_4_0
u_memcmpCodePointOrder_4_0
u_memcmp_4_0
u_memcpy_4_0 ; Check!!! forwards to memcpy in MSVCR80.dll (ordinal 1334)
u_memmove_4_0 ; Check!!! forwards to memmove in MSVCR80.dll (ordinal 1336)
u_memrchr32_4_0
u_memrchr_4_0
u_memset_4_0
u_releaseDefaultConverter_4_0
u_setAtomicIncDecFunctions_4_0
u_setDataDirectory_4_0
u_setMemoryFunctions_4_0
u_setMutexFunctions_4_0
u_shapeArabic_4_0
u_strCaseCompare_4_0
u_strCompareIter_4_0
u_strCompare_4_0
u_strFindFirst_4_0
u_strFindLast_4_0
u_strFoldCase_4_0
u_strFromUTF32_4_0
u_strFromUTF8Lenient_4_0
u_strFromUTF8WithSub_4_0
u_strFromUTF8_4_0
u_strFromWCS_4_0
u_strHasMoreChar32Than_4_0
u_strToLower_4_0
u_strToTitle_4_0
u_strToUTF32_4_0
u_strToUTF8WithSub_4_0
u_strToUTF8_4_0
u_strToUpper_4_0
u_strToWCS_4_0
u_strcasecmp_4_0
u_strcat_4_0
u_strchr32_4_0
u_strchr_4_0
u_strcmpCodePointOrder_4_0
u_strcmp_4_0
u_strcpy_4_0
u_strcspn_4_0
u_strlen_4_0
u_strncasecmp_4_0
u_strncat_4_0
u_strncmpCodePointOrder_4_0
u_strncmp_4_0
u_strncpy_4_0
u_strpbrk_4_0
u_strrchr32_4_0
u_strrchr_4_0
u_strrstr_4_0
u_strspn_4_0
u_strstr_4_0
u_strtok_r_4_0
u_terminateChars_4_0
u_terminateUChar32s_4_0
u_terminateUChars_4_0
u_terminateWChars_4_0
u_tolower_4_0
u_totitle_4_0
u_toupper_4_0
u_uastrcpy_4_0
u_uastrncpy_4_0
u_unescapeAt_4_0
u_unescape_4_0
u_versionFromString_4_0
u_versionToString_4_0
ubidi_close_4_0
ubidi_countParagraphs_4_0
ubidi_countRuns_4_0
ubidi_getClassCallback_4_0
ubidi_getClass_4_0
ubidi_getCustomizedClass_4_0
ubidi_getDirection_4_0
ubidi_getLength_4_0
ubidi_getLevelAt_4_0
ubidi_getLevels_4_0
ubidi_getLogicalIndex_4_0
ubidi_getLogicalMap_4_0
ubidi_getLogicalRun_4_0
ubidi_getParaLevel_4_0
ubidi_getParagraphByIndex_4_0
ubidi_getParagraph_4_0
ubidi_getProcessedLength_4_0
ubidi_getReorderingMode_4_0
ubidi_getReorderingOptions_4_0
ubidi_getResultLength_4_0
ubidi_getText_4_0
ubidi_getVisualIndex_4_0
ubidi_getVisualMap_4_0
ubidi_getVisualRun_4_0
ubidi_invertMap_4_0
ubidi_isInverse_4_0
ubidi_isOrderParagraphsLTR_4_0
ubidi_openSized_4_0
ubidi_open_4_0
ubidi_orderParagraphsLTR_4_0
ubidi_reorderLogical_4_0
ubidi_reorderVisual_4_0
ubidi_setClassCallback_4_0
ubidi_setInverse_4_0
ubidi_setLine_4_0
ubidi_setPara_4_0
ubidi_setReorderingMode_4_0
ubidi_setReorderingOptions_4_0
ubidi_writeReordered_4_0
ubidi_writeReverse_4_0
ublock_getCode_4_0
ubrk_close_4_0
ubrk_countAvailable_4_0
ubrk_current_4_0
ubrk_first_4_0
ubrk_following_4_0
ubrk_getAvailable_4_0
ubrk_getLocaleByType_4_0
ubrk_getRuleStatusVec_4_0
ubrk_getRuleStatus_4_0
ubrk_isBoundary_4_0
ubrk_last_4_0
ubrk_next_4_0
ubrk_openRules_4_0
ubrk_open_4_0
ubrk_preceding_4_0
ubrk_previous_4_0
ubrk_safeClone_4_0
ubrk_setText_4_0
ubrk_setUText_4_0
ubrk_swap_4_0
ucase_close_4_0
ucase_fold_4_0
ucase_getSingleton_4_0
ucase_getTypeOrIgnorable_4_0
ucase_getType_4_0
ucase_isCaseSensitive_4_0
ucase_isSoftDotted_4_0
ucase_toFullFolding_4_0
ucase_toFullLower_4_0
ucase_toFullTitle_4_0
ucase_toFullUpper_4_0
ucase_tolower_4_0
ucase_totitle_4_0
ucase_toupper_4_0
ucasemap_close_4_0
ucasemap_getBreakIterator_4_0
ucasemap_getLocale_4_0
ucasemap_getOptions_4_0
ucasemap_open_4_0
ucasemap_setBreakIterator_4_0
ucasemap_setLocale_4_0
ucasemap_setOptions_4_0
ucasemap_toTitle_4_0
ucasemap_utf8FoldCase_4_0
ucasemap_utf8ToLower_4_0
ucasemap_utf8ToTitle_4_0
ucasemap_utf8ToUpper_4_0
uchar_swapNames_4_0
ucln_registerCleanup_4_0
ucnv_cbFromUWriteBytes_4_0
ucnv_cbFromUWriteSub_4_0
ucnv_cbFromUWriteUChars_4_0
ucnv_cbToUWriteSub_4_0
ucnv_cbToUWriteUChars_4_0
ucnv_close_4_0
ucnv_compareNames_4_0
ucnv_convertEx_4_0
ucnv_convert_4_0
ucnv_countAliases_4_0
ucnv_countAvailable_4_0
ucnv_countStandards_4_0
ucnv_detectUnicodeSignature_4_0
ucnv_fixFileSeparator_4_0
ucnv_flushCache_4_0
ucnv_fromAlgorithmic_4_0
ucnv_fromUChars_4_0
ucnv_fromUCountPending_4_0
ucnv_fromUnicode_4_0
ucnv_getAlias_4_0
ucnv_getAliases_4_0
ucnv_getAvailableName_4_0
ucnv_getCCSID_4_0
ucnv_getCanonicalName_4_0
ucnv_getDefaultName_4_0
ucnv_getDisplayName_4_0
ucnv_getFromUCallBack_4_0
ucnv_getInvalidChars_4_0
ucnv_getInvalidUChars_4_0
ucnv_getMaxCharSize_4_0
ucnv_getMinCharSize_4_0
ucnv_getName_4_0
ucnv_getNextUChar_4_0
ucnv_getPlatform_4_0
ucnv_getStandardName_4_0
ucnv_getStandard_4_0
ucnv_getStarters_4_0
ucnv_getSubstChars_4_0
ucnv_getToUCallBack_4_0
ucnv_getType_4_0
ucnv_getUnicodeSet_4_0
ucnv_io_stripASCIIForCompare_4_0
ucnv_io_stripEBCDICForCompare_4_0
ucnv_isAmbiguous_4_0
ucnv_openAllNames_4_0
ucnv_openCCSID_4_0
ucnv_openPackage_4_0
ucnv_openStandardNames_4_0
ucnv_openU_4_0
ucnv_open_4_0
ucnv_resetFromUnicode_4_0
ucnv_resetToUnicode_4_0
ucnv_reset_4_0
ucnv_safeClone_4_0
ucnv_setDefaultName_4_0
ucnv_setFallback_4_0
ucnv_setFromUCallBack_4_0
ucnv_setSubstChars_4_0
ucnv_setSubstString_4_0
ucnv_setToUCallBack_4_0
ucnv_swapAliases_4_0
ucnv_swap_4_0
ucnv_toAlgorithmic_4_0
ucnv_toUChars_4_0
ucnv_toUCountPending_4_0
ucnv_toUnicode_4_0
ucnv_usesFallback_4_0
ucol_swapBinary_4_0
ucol_swapInverseUCA_4_0
ucol_swap_4_0
udata_closeSwapper_4_0
udata_close_4_0
udata_getInfo_4_0
udata_getLength_4_0
udata_getMemory_4_0
udata_getRawMemory_4_0
udata_openChoice_4_0
udata_openSwapperForInputData_4_0
udata_openSwapper_4_0
udata_open_4_0
udata_printError_4_0
udata_readInt16_4_0
udata_readInt32_4_0
udata_setAppData_4_0
udata_setCommonData_4_0
udata_setFileAccess_4_0
udata_swapDataHeader_4_0
udata_swapInvStringBlock_4_0
uenum_close_4_0
uenum_count_4_0
uenum_nextDefault_4_0
uenum_next_4_0
uenum_openCharStringsEnumeration_4_0
uenum_openStringEnumeration_4_0
uenum_reset_4_0
uenum_unextDefault_4_0
uenum_unext_4_0
uhash_close_4_0
uhash_compareCaselessUnicodeString_4_0
uhash_compareChars_4_0
uhash_compareIChars_4_0
uhash_compareLong_4_0
uhash_compareUChars_4_0
uhash_compareUnicodeString_4_0
uhash_count_4_0
uhash_deleteHashtable_4_0
uhash_deleteUVector_4_0
uhash_deleteUnicodeString_4_0
uhash_equals_4_0
uhash_find_4_0
uhash_freeBlock_4_0
uhash_get_4_0
uhash_geti_4_0
uhash_hashCaselessUnicodeString_4_0
uhash_hashChars_4_0
uhash_hashIChars_4_0
uhash_hashLong_4_0
uhash_hashUCharsN_4_0
uhash_hashUChars_4_0
uhash_hashUnicodeString_4_0
uhash_iget_4_0
uhash_igeti_4_0
uhash_init_4_0
uhash_iput_4_0
uhash_iputi_4_0
uhash_iremove_4_0
uhash_iremovei_4_0
uhash_nextElement_4_0
uhash_openSize_4_0
uhash_open_4_0
uhash_put_4_0
uhash_puti_4_0
uhash_removeAll_4_0
uhash_removeElement_4_0
uhash_remove_4_0
uhash_removei_4_0
uhash_setKeyComparator_4_0
uhash_setKeyDeleter_4_0
uhash_setKeyHasher_4_0
uhash_setResizePolicy_4_0
uhash_setValueComparator_4_0
uhash_setValueDeleter_4_0
uidna_IDNToASCII_4_0
uidna_IDNToUnicode_4_0
uidna_compare_4_0
uidna_toASCII_4_0
uidna_toUnicode_4_0
uiter_current32_4_0
uiter_getState_4_0
uiter_next32_4_0
uiter_previous32_4_0
uiter_setCharacterIterator_4_0
uiter_setReplaceable_4_0
uiter_setState_4_0
uiter_setString_4_0
uiter_setUTF16BE_4_0
uiter_setUTF8_4_0
uloc_acceptLanguageFromHTTP_4_0
uloc_acceptLanguage_4_0
uloc_addLikelySubtags_4_0
uloc_canonicalize_4_0
uloc_countAvailable_4_0
uloc_getAvailable_4_0
uloc_getBaseName_4_0
uloc_getCharacterOrientation_4_0
uloc_getCountry_4_0
uloc_getDefault_4_0
uloc_getDisplayCountry_4_0
uloc_getDisplayKeywordValue_4_0
uloc_getDisplayKeyword_4_0
uloc_getDisplayLanguage_4_0
uloc_getDisplayName_4_0
uloc_getDisplayScript_4_0
uloc_getDisplayVariant_4_0
uloc_getISO3Country_4_0
uloc_getISO3Language_4_0
uloc_getISOCountries_4_0
uloc_getISOLanguages_4_0
uloc_getKeywordValue_4_0
uloc_getLCID_4_0
uloc_getLanguage_4_0
uloc_getLineOrientation_4_0
uloc_getLocaleForLCID_4_0
uloc_getName_4_0
uloc_getParent_4_0
uloc_getScript_4_0
uloc_getVariant_4_0
uloc_minimizeSubtags_4_0
uloc_openKeywordList_4_0
uloc_openKeywords_4_0
uloc_setDefault_4_0
uloc_setKeywordValue_4_0
umtx_atomic_dec_4_0
umtx_atomic_inc_4_0
umtx_destroy_4_0
umtx_init_4_0
umtx_lock_4_0
umtx_unlock_4_0
unorm_addPropertyStarts_4_0
unorm_closeIter_4_0
unorm_compare_4_0
unorm_compose_4_0
unorm_concatenate_4_0
unorm_decompose_4_0
unorm_getCanonStartSet_4_0
unorm_getDecomposition_4_0
unorm_getFCDTrie_4_0
unorm_getUnicodeVersion_4_0
unorm_haveData_4_0
unorm_internalNormalize_4_0
unorm_isNFSkippable_4_0
unorm_isNormalizedWithOptions_4_0
unorm_isNormalized_4_0
unorm_next_4_0
unorm_normalize_4_0
unorm_openIter_4_0
unorm_previous_4_0
unorm_quickCheckWithOptions_4_0
unorm_quickCheck_4_0
unorm_setIter_4_0
upname_swap_4_0
uprv_asciitolower_4_0
uprv_ceil_4_0
uprv_compareASCIIPropertyNames_4_0
uprv_compareEBCDICPropertyNames_4_0
uprv_convertToLCID_4_0
uprv_convertToPosix_4_0
uprv_ebcdicFromAscii_4_0
uprv_ebcdictolower_4_0
uprv_fabs_4_0
uprv_floor_4_0
uprv_fmax_4_0
uprv_fmin_4_0
uprv_fmod_4_0 ; Check!!! forwards to _CIfmod in MSVCR80.dll (ordinal 81)
uprv_free_4_0
uprv_getCharNameCharacters_4_0
uprv_getDefaultCodepage_4_0
uprv_getDefaultLocaleID_4_0
uprv_getInfinity_4_0
uprv_getMaxCharNameLength_4_0
uprv_getNaN_4_0
uprv_getUTCtime_4_0
uprv_getWindowsTimeZoneInfo
uprv_int32Comparator_4_0
uprv_isInfinite_4_0
uprv_isInvariantString_4_0
uprv_isInvariantUString_4_0
uprv_isNaN_4_0
uprv_isNegativeInfinity_4_0
uprv_isPositiveInfinity_4_0
uprv_isRuleWhiteSpace_4_0
uprv_itou_4_0
uprv_log_4_0 ; Check!!! forwards to _CIlog in MSVCR80.dll (ordinal 82)
uprv_malloc_4_0
uprv_maxMantissa_4_0
uprv_max_4_0
uprv_maximumPtr_4_0
uprv_min_4_0
uprv_modf_4_0
uprv_openRuleWhiteSpaceSet_4_0
uprv_pathIsAbsolute_4_0
uprv_pow10_4_0 ; Check!!! forwards to _CIpow in MSVCR80.dll (ordinal 84)
uprv_pow_4_0 ; Check!!! forwards to _CIpow in MSVCR80.dll (ordinal 84)
uprv_realloc_4_0
uprv_round_4_0
uprv_sortArray_4_0
uprv_strdup_4_0
uprv_strndup_4_0
uprv_syntaxError_4_0
uprv_timezone_4_0
uprv_toupper_4_0
uprv_trunc_4_0
uprv_tzname_4_0
uprv_tzset_4_0 ; Check!!! forwards to _tzset in MSVCR80.dll (ordinal 992)
uprv_uint16Comparator_4_0
uprv_uint32Comparator_4_0
ures_close_4_0
ures_countArrayItems_4_0
ures_findResource_4_0
ures_findSubResource_4_0
ures_getBinary_4_0
ures_getByIndex_4_0
ures_getByKeyWithFallback_4_0
ures_getByKey_4_0
ures_getFunctionalEquivalent_4_0
ures_getIntVector_4_0
ures_getInt_4_0
ures_getKey_4_0
ures_getKeywordValues_4_0
ures_getLocaleByType_4_0
ures_getLocale_4_0
ures_getNextResource_4_0
ures_getNextString_4_0
ures_getSize_4_0
ures_getStringByIndex_4_0
ures_getStringByKeyWithFallback_4_0
ures_getStringByKey_4_0
ures_getString_4_0
ures_getType_4_0
ures_getUInt_4_0
ures_getUTF8StringByIndex_4_0
ures_getUTF8StringByKey_4_0
ures_getUTF8String_4_0
ures_getVersionNumber_4_0
ures_getVersion_4_0
ures_hasNext_4_0
ures_initStackObject_4_0
ures_openAvailableLocales_4_0
ures_openDirect_4_0
ures_openFillIn_4_0
ures_openU_4_0
ures_open_4_0
ures_resetIterator_4_0
ures_swap_4_0
uscript_closeRun_4_0
uscript_getCode_4_0
uscript_getName_4_0
uscript_getScript_4_0
uscript_getShortName_4_0
uscript_nextRun_4_0
uscript_openRun_4_0
uscript_resetRun_4_0
uscript_setRunText_4_0
uset_addAllCodePoints_4_0
uset_addAll_4_0
uset_addRange_4_0
uset_addString_4_0
uset_add_4_0
uset_applyIntPropertyValue_4_0
uset_applyPattern_4_0
uset_applyPropertyAlias_4_0
uset_charAt_4_0
uset_clear_4_0
uset_cloneAsThawed_4_0
uset_clone_4_0
uset_close_4_0
uset_compact_4_0
uset_complementAll_4_0
uset_complement_4_0
uset_containsAllCodePoints_4_0
uset_containsAll_4_0
uset_containsNone_4_0
uset_containsRange_4_0
uset_containsSome_4_0
uset_containsString_4_0
uset_contains_4_0
uset_equals_4_0
uset_freeze_4_0
uset_getItemCount_4_0
uset_getItem_4_0
uset_getSerializedRangeCount_4_0
uset_getSerializedRange_4_0
uset_getSerializedSet_4_0
uset_indexOf_4_0
uset_isEmpty_4_0
uset_isFrozen_4_0
uset_openPatternOptions_4_0
uset_openPattern_4_0
uset_open_4_0
uset_removeAll_4_0
uset_removeRange_4_0
uset_removeString_4_0
uset_remove_4_0
uset_resemblesPattern_4_0
uset_retainAll_4_0
uset_retain_4_0
uset_serialize_4_0
uset_serializedContains_4_0
uset_setSerializedToOne_4_0
uset_set_4_0
uset_size_4_0
uset_spanBackUTF8_4_0
uset_spanBack_4_0
uset_spanUTF8_4_0
uset_span_4_0
uset_toPattern_4_0
usprep_close_4_0
usprep_open_4_0
usprep_prepare_4_0
usprep_swap_4_0
utext_char32At_4_0
utext_clone_4_0
utext_close_4_0
utext_copy_4_0
utext_current32_4_0
utext_equals_4_0
utext_extract_4_0
utext_freeze_4_0
utext_getNativeIndex_4_0
utext_getPreviousNativeIndex_4_0
utext_hasMetaData_4_0
utext_isLengthExpensive_4_0
utext_isWritable_4_0
utext_moveIndex32_4_0
utext_nativeLength_4_0 ; Check!!! Couldn't determine function argument count. Function doesn't return. 
utext_next32From_4_0
utext_next32_4_0
utext_openCharacterIterator_4_0
utext_openConstUnicodeString_4_0
utext_openReplaceable_4_0
utext_openUChars_4_0
utext_openUTF8_4_0
utext_openUnicodeString_4_0
utext_previous32From_4_0
utext_previous32_4_0
utext_replace_4_0
utext_setNativeIndex_4_0
utext_setup_4_0
utf8_appendCharSafeBody_4_0
utf8_back1SafeBody_4_0
utf8_countTrailBytes_4_0 DATA
utf8_nextCharSafeBody_4_0
utf8_prevCharSafeBody_4_0
utrace_data_4_0
utrace_entry_4_0
utrace_exit_4_0
utrace_format_4_0
utrace_functionName_4_0
utrace_getFunctions_4_0
utrace_getLevel_4_0
utrace_level_4_0 DATA
utrace_setFunctions_4_0
utrace_setLevel_4_0
utrace_vformat_4_0
utrie_clone_4_0
utrie_close_4_0
utrie_defaultGetFoldingOffset_4_0
utrie_enum_4_0
utrie_get32_4_0
utrie_getData_4_0
utrie_open_4_0
utrie_serialize_4_0
utrie_set32_4_0
utrie_setRange32_4_0
utrie_swap_4_0
utrie_unserializeDummy_4_0
utrie_unserialize_4_0
